
image/ssv6200-uart.elf:     file format elf32-littlearm


Disassembly of section startup:

00000000 <_undf-0x20>:
   0:	ea0055c7 	b	15724 <start>
   4:	e59ff014 	ldr	pc, [pc, #20]	; 20 <_undf>
   8:	e59ff014 	ldr	pc, [pc, #20]	; 24 <_swi>
   c:	e59ff014 	ldr	pc, [pc, #20]	; 28 <_pabt>
  10:	e59ff014 	ldr	pc, [pc, #20]	; 2c <_dabt>
  14:	e1a00000 	nop			; (mov r0, r0)
  18:	e59ff010 	ldr	pc, [pc, #16]	; 30 <_irq>
  1c:	e59ff010 	ldr	pc, [pc, #16]	; 34 <_fiq>

00000020 <_undf>:
  20:	00000038 	andeq	r0, r0, r8, lsr r0

00000024 <_swi>:
  24:	0001f618 	andeq	pc, r1, r8, lsl r6	; <UNPREDICTABLE>

00000028 <_pabt>:
  28:	0000003c 	andeq	r0, r0, ip, lsr r0

0000002c <_dabt>:
  2c:	00000040 	andeq	r0, r0, r0, asr #32

00000030 <_irq>:
  30:	00000044 	andeq	r0, r0, r4, asr #32

00000034 <_fiq>:
  34:	00000048 	andeq	r0, r0, r8, asr #32

00000038 <__undf>:
  38:	eafffffe 	b	38 <__undf>

0000003c <__pabt>:
  3c:	eafffffe 	b	3c <__pabt>

00000040 <__dabt>:
  40:	eafffffe 	b	40 <__dabt>

00000044 <__irq>:
  44:	ea005767 	b	15de8 <do_irq>

00000048 <__fiq>:
  48:	eafffffe 	b	48 <__fiq>

Disassembly of section prog:

0000004c <rsn_selector_to_bitfield>:
      4c:	e5d03001 	ldrb	r3, [r0, #1]
      50:	e5d02000 	ldrb	r2, [r0]
      54:	e1a03803 	lsl	r3, r3, #16
      58:	e1833c02 	orr	r3, r3, r2, lsl #24
      5c:	e5d02003 	ldrb	r2, [r0, #3]
      60:	e5d00002 	ldrb	r0, [r0, #2]
      64:	e1833002 	orr	r3, r3, r2
      68:	e1830400 	orr	r0, r3, r0, lsl #8
      6c:	e59f3050 	ldr	r3, [pc, #80]	; c4 <I_BIT+0x44>
      70:	e1500003 	cmp	r0, r3
      74:	03a00001 	moveq	r0, #1
      78:	01a0f00e 	moveq	pc, lr
      7c:	e2833001 	add	r3, r3, #1
      80:	e1500003 	cmp	r0, r3
      84:	0a00000c 	beq	bc <I_BIT+0x3c>
      88:	e2833001 	add	r3, r3, #1
      8c:	e1500003 	cmp	r0, r3
      90:	03a00008 	moveq	r0, #8
      94:	01a0f00e 	moveq	pc, lr
      98:	e2833002 	add	r3, r3, #2
      9c:	e1500003 	cmp	r0, r3
      a0:	03a00010 	moveq	r0, #16
      a4:	01a0f00e 	moveq	pc, lr
      a8:	e2833001 	add	r3, r3, #1
      ac:	e1500003 	cmp	r0, r3
      b0:	03a00004 	moveq	r0, #4
      b4:	13a00000 	movne	r0, #0
      b8:	e1a0f00e 	mov	pc, lr
      bc:	e3a00002 	mov	r0, #2
      c0:	e1a0f00e 	mov	pc, lr
      c4:	000fac00 	andeq	sl, pc, r0, lsl #24

000000c8 <wpa_selector_to_bitfield>:
      c8:	e5d03001 	ldrb	r3, [r0, #1]
      cc:	e5d02000 	ldrb	r2, [r0]
      d0:	e1a03803 	lsl	r3, r3, #16
      d4:	e1833c02 	orr	r3, r3, r2, lsl #24
      d8:	e5d02003 	ldrb	r2, [r0, #3]
      dc:	e5d00002 	ldrb	r0, [r0, #2]
      e0:	e1833002 	orr	r3, r3, r2
      e4:	e1830400 	orr	r0, r3, r0, lsl #8
      e8:	e59f3050 	ldr	r3, [pc, #80]	; 140 <wpa_selector_to_bitfield+0x78>
      ec:	e1500003 	cmp	r0, r3
      f0:	03a00001 	moveq	r0, #1
      f4:	01a0f00e 	moveq	pc, lr
      f8:	e2833001 	add	r3, r3, #1
      fc:	e1500003 	cmp	r0, r3
     100:	0a00000c 	beq	138 <wpa_selector_to_bitfield+0x70>
     104:	e2833001 	add	r3, r3, #1
     108:	e1500003 	cmp	r0, r3
     10c:	03a00008 	moveq	r0, #8
     110:	01a0f00e 	moveq	pc, lr
     114:	e2833002 	add	r3, r3, #2
     118:	e1500003 	cmp	r0, r3
     11c:	03a00010 	moveq	r0, #16
     120:	01a0f00e 	moveq	pc, lr
     124:	e2833001 	add	r3, r3, #1
     128:	e1500003 	cmp	r0, r3
     12c:	03a00004 	moveq	r0, #4
     130:	13a00000 	movne	r0, #0
     134:	e1a0f00e 	mov	pc, lr
     138:	e3a00002 	mov	r0, #2
     13c:	e1a0f00e 	mov	pc, lr
     140:	0050f200 	subseq	pc, r0, r0, lsl #4

00000144 <wpa_eapol_key_mic>:
     144:	e92d4070 	push	{r4, r5, r6, lr}
     148:	e3510001 	cmp	r1, #1
     14c:	e24dd020 	sub	sp, sp, #32
     150:	e59d5030 	ldr	r5, [sp, #48]	; 0x30
     154:	0a000002 	beq	164 <wpa_eapol_key_mic+0x20>
     158:	e3510002 	cmp	r1, #2
     15c:	1a000010 	bne	1a4 <wpa_eapol_key_mic+0x60>
     160:	ea000003 	b	174 <wpa_eapol_key_mic+0x30>
     164:	e3a01010 	mov	r1, #16
     168:	e58d5000 	str	r5, [sp]
     16c:	eb00051a 	bl	15dc <hmac_md5>
     170:	ea00000c 	b	1a8 <wpa_eapol_key_mic+0x64>
     174:	e28d400c 	add	r4, sp, #12
     178:	e3a01010 	mov	r1, #16
     17c:	e58d4000 	str	r4, [sp]
     180:	eb0008f6 	bl	2560 <hmac_sha1>
     184:	e2506000 	subs	r6, r0, #0
     188:	1a000005 	bne	1a4 <wpa_eapol_key_mic+0x60>
     18c:	e1a00005 	mov	r0, r5
     190:	e1a01004 	mov	r1, r4
     194:	e3a02010 	mov	r2, #16
     198:	eb0077fe 	bl	1e198 <memcpy>
     19c:	e1a00006 	mov	r0, r6
     1a0:	ea000000 	b	1a8 <wpa_eapol_key_mic+0x64>
     1a4:	e3e00000 	mvn	r0, #0
     1a8:	e28dd020 	add	sp, sp, #32
     1ac:	e8bd8070 	pop	{r4, r5, r6, pc}

000001b0 <wpa_pmk_to_ptk>:
     1b0:	e92d47f0 	push	{r4, r5, r6, r7, r8, r9, sl, lr}
     1b4:	e24dd060 	sub	sp, sp, #96	; 0x60
     1b8:	e59da080 	ldr	sl, [sp, #128]	; 0x80
     1bc:	e1a05000 	mov	r5, r0
     1c0:	e1a04001 	mov	r4, r1
     1c4:	e1a09002 	mov	r9, r2
     1c8:	e28d6084 	add	r6, sp, #132	; 0x84
     1cc:	e1a00003 	mov	r0, r3
     1d0:	e1a0100a 	mov	r1, sl
     1d4:	e3a02006 	mov	r2, #6
     1d8:	e1a08003 	mov	r8, r3
     1dc:	e89600c0 	ldm	r6, {r6, r7}
     1e0:	eb0077f4 	bl	1e1b8 <memcmp>
     1e4:	e3500000 	cmp	r0, #0
     1e8:	e28d0014 	add	r0, sp, #20
     1ec:	aa000005 	bge	208 <wpa_pmk_to_ptk+0x58>
     1f0:	e1a01008 	mov	r1, r8
     1f4:	e3a02006 	mov	r2, #6
     1f8:	eb0077e6 	bl	1e198 <memcpy>
     1fc:	e28d001a 	add	r0, sp, #26
     200:	e1a0100a 	mov	r1, sl
     204:	ea000004 	b	21c <wpa_pmk_to_ptk+0x6c>
     208:	e1a0100a 	mov	r1, sl
     20c:	e3a02006 	mov	r2, #6
     210:	eb0077e0 	bl	1e198 <memcpy>
     214:	e28d001a 	add	r0, sp, #26
     218:	e1a01008 	mov	r1, r8
     21c:	e3a02006 	mov	r2, #6
     220:	eb0077dc 	bl	1e198 <memcpy>
     224:	e1a00006 	mov	r0, r6
     228:	e1a01007 	mov	r1, r7
     22c:	e3a02020 	mov	r2, #32
     230:	eb0077e0 	bl	1e1b8 <memcmp>
     234:	e3500000 	cmp	r0, #0
     238:	e28d0020 	add	r0, sp, #32
     23c:	aa000005 	bge	258 <wpa_pmk_to_ptk+0xa8>
     240:	e1a01006 	mov	r1, r6
     244:	e3a02020 	mov	r2, #32
     248:	eb0077d2 	bl	1e198 <memcpy>
     24c:	e28d0040 	add	r0, sp, #64	; 0x40
     250:	e1a01007 	mov	r1, r7
     254:	ea000004 	b	26c <wpa_pmk_to_ptk+0xbc>
     258:	e1a01007 	mov	r1, r7
     25c:	e3a02020 	mov	r2, #32
     260:	eb0077cc 	bl	1e198 <memcpy>
     264:	e28d0040 	add	r0, sp, #64	; 0x40
     268:	e1a01006 	mov	r1, r6
     26c:	e3a02020 	mov	r2, #32
     270:	eb0077c8 	bl	1e198 <memcpy>
     274:	e3a0304c 	mov	r3, #76	; 0x4c
     278:	e58d3000 	str	r3, [sp]
     27c:	e59d308c 	ldr	r3, [sp, #140]	; 0x8c
     280:	e58d3004 	str	r3, [sp, #4]
     284:	e59d3090 	ldr	r3, [sp, #144]	; 0x90
     288:	e1a00005 	mov	r0, r5
     28c:	e58d3008 	str	r3, [sp, #8]
     290:	e1a01004 	mov	r1, r4
     294:	e1a02009 	mov	r2, r9
     298:	e28d3014 	add	r3, sp, #20
     29c:	eb0008bb 	bl	2590 <sha1_prf>
     2a0:	e28dd060 	add	sp, sp, #96	; 0x60
     2a4:	e8bd87f0 	pop	{r4, r5, r6, r7, r8, r9, sl, pc}

000002a8 <wpa_parse_wpa_ie_rsn>:
     2a8:	e92d41f0 	push	{r4, r5, r6, r7, r8, lr}
     2ac:	e1a04002 	mov	r4, r2
     2b0:	e1a06001 	mov	r6, r1
     2b4:	e1a05000 	mov	r5, r0
     2b8:	e3a01000 	mov	r1, #0
     2bc:	e1a00002 	mov	r0, r2
     2c0:	e3a02020 	mov	r2, #32
     2c4:	eb00777a 	bl	1e0b4 <memset>
     2c8:	e3a03002 	mov	r3, #2
     2cc:	e5843000 	str	r3, [r4]
     2d0:	e3a03010 	mov	r3, #16
     2d4:	e5843004 	str	r3, [r4, #4]
     2d8:	e5843008 	str	r3, [r4, #8]
     2dc:	e3a03001 	mov	r3, #1
     2e0:	e584300c 	str	r3, [r4, #12]
     2e4:	e2463002 	sub	r3, r6, #2
     2e8:	e3a07000 	mov	r7, #0
     2ec:	e3530003 	cmp	r3, #3
     2f0:	e5847010 	str	r7, [r4, #16]
     2f4:	e5847018 	str	r7, [r4, #24]
     2f8:	e5847014 	str	r7, [r4, #20]
     2fc:	e584701c 	str	r7, [r4, #28]
     300:	da000006 	ble	320 <wpa_parse_wpa_ie_rsn+0x78>
     304:	e2850002 	add	r0, r5, #2
     308:	ebffff4f 	bl	4c <rsn_selector_to_bitfield>
     30c:	e2463006 	sub	r3, r6, #6
     310:	e3530001 	cmp	r3, #1
     314:	e5840008 	str	r0, [r4, #8]
     318:	ca000003 	bgt	32c <wpa_parse_wpa_ie_rsn+0x84>
     31c:	ea000016 	b	37c <wpa_parse_wpa_ie_rsn+0xd4>
     320:	e3530000 	cmp	r3, #0
     324:	da00005b 	ble	498 <IRQ_STACK_SIZE+0x98>
     328:	ea000052 	b	478 <IRQ_STACK_SIZE+0x78>
     32c:	e5847004 	str	r7, [r4, #4]
     330:	e5d58007 	ldrb	r8, [r5, #7]
     334:	e5d53006 	ldrb	r3, [r5, #6]
     338:	e1938408 	orrs	r8, r3, r8, lsl #8
     33c:	0a00004f 	beq	480 <IRQ_STACK_SIZE+0x80>
     340:	e2466008 	sub	r6, r6, #8
     344:	e1560108 	cmp	r6, r8, lsl #2
     348:	ba00004c 	blt	480 <IRQ_STACK_SIZE+0x80>
     34c:	e2855008 	add	r5, r5, #8
     350:	e1a00005 	mov	r0, r5
     354:	ebffff3c 	bl	4c <rsn_selector_to_bitfield>
     358:	e5943004 	ldr	r3, [r4, #4]
     35c:	e2877001 	add	r7, r7, #1
     360:	e1833000 	orr	r3, r3, r0
     364:	e1570008 	cmp	r7, r8
     368:	e5843004 	str	r3, [r4, #4]
     36c:	e2855004 	add	r5, r5, #4
     370:	e2466004 	sub	r6, r6, #4
     374:	bafffff5 	blt	350 <wpa_parse_wpa_ie_rsn+0xa8>
     378:	ea000002 	b	388 <wpa_parse_wpa_ie_rsn+0xe0>
     37c:	03e00004 	mvneq	r0, #4
     380:	08bd81f0 	popeq	{r4, r5, r6, r7, r8, pc}
     384:	ea000043 	b	498 <IRQ_STACK_SIZE+0x98>
     388:	e3560001 	cmp	r6, #1
     38c:	da000022 	ble	41c <IRQ_STACK_SIZE+0x1c>
     390:	e3a03000 	mov	r3, #0
     394:	e584300c 	str	r3, [r4, #12]
     398:	e5d51001 	ldrb	r1, [r5, #1]
     39c:	e5d52000 	ldrb	r2, [r5]
     3a0:	e1922401 	orrs	r2, r2, r1, lsl #8
     3a4:	0a000037 	beq	488 <IRQ_STACK_SIZE+0x88>
     3a8:	e2466002 	sub	r6, r6, #2
     3ac:	e1560102 	cmp	r6, r2, lsl #2
     3b0:	ba000034 	blt	488 <IRQ_STACK_SIZE+0x88>
     3b4:	e59fc0e4 	ldr	ip, [pc, #228]	; 4a0 <IRQ_STACK_SIZE+0xa0>
     3b8:	e59f00e4 	ldr	r0, [pc, #228]	; 4a4 <IRQ_STACK_SIZE+0xa4>
     3bc:	e2855002 	add	r5, r5, #2
     3c0:	e5d51001 	ldrb	r1, [r5, #1]
     3c4:	e5d58000 	ldrb	r8, [r5]
     3c8:	e1a01801 	lsl	r1, r1, #16
     3cc:	e1811c08 	orr	r1, r1, r8, lsl #24
     3d0:	e5d58003 	ldrb	r8, [r5, #3]
     3d4:	e1811008 	orr	r1, r1, r8
     3d8:	e5d58002 	ldrb	r8, [r5, #2]
     3dc:	e1811408 	orr	r1, r1, r8, lsl #8
     3e0:	e151000c 	cmp	r1, ip
     3e4:	e594700c 	ldr	r7, [r4, #12]
     3e8:	03a01001 	moveq	r1, #1
     3ec:	0a000002 	beq	3fc <wpa_parse_wpa_ie_rsn+0x154>
     3f0:	e1510000 	cmp	r1, r0
     3f4:	03a01002 	moveq	r1, #2
     3f8:	13a01000 	movne	r1, #0
     3fc:	e2833001 	add	r3, r3, #1
     400:	e1811007 	orr	r1, r1, r7
     404:	e1530002 	cmp	r3, r2
     408:	e584100c 	str	r1, [r4, #12]
     40c:	e2855004 	add	r5, r5, #4
     410:	e2466004 	sub	r6, r6, #4
     414:	baffffe9 	blt	3c0 <wpa_parse_wpa_ie_rsn+0x118>
     418:	ea000002 	b	428 <IRQ_STACK_SIZE+0x28>
     41c:	03e00006 	mvneq	r0, #6
     420:	08bd81f0 	popeq	{r4, r5, r6, r7, r8, pc}
     424:	ea00001b 	b	498 <IRQ_STACK_SIZE+0x98>
     428:	e3560001 	cmp	r6, #1
     42c:	da000019 	ble	498 <IRQ_STACK_SIZE+0x98>
     430:	e5d52001 	ldrb	r2, [r5, #1]
     434:	e5d53000 	ldrb	r3, [r5]
     438:	e3560003 	cmp	r6, #3
     43c:	e1833402 	orr	r3, r3, r2, lsl #8
     440:	e5843010 	str	r3, [r4, #16]
     444:	da000011 	ble	490 <IRQ_STACK_SIZE+0x90>
     448:	e5d52003 	ldrb	r2, [r5, #3]
     44c:	e5d53002 	ldrb	r3, [r5, #2]
     450:	e2466004 	sub	r6, r6, #4
     454:	e1833402 	orr	r3, r3, r2, lsl #8
     458:	e1560203 	cmp	r6, r3, lsl #4
     45c:	e3a00000 	mov	r0, #0
     460:	a2855004 	addge	r5, r5, #4
     464:	e5843014 	str	r3, [r4, #20]
     468:	a5845018 	strge	r5, [r4, #24]
     46c:	b5840014 	strlt	r0, [r4, #20]
     470:	b3e00008 	mvnlt	r0, #8
     474:	e8bd81f0 	pop	{r4, r5, r6, r7, r8, pc}
     478:	e3e00002 	mvn	r0, #2
     47c:	e8bd81f0 	pop	{r4, r5, r6, r7, r8, pc}
     480:	e3e00003 	mvn	r0, #3
     484:	e8bd81f0 	pop	{r4, r5, r6, r7, r8, pc}
     488:	e3e00005 	mvn	r0, #5
     48c:	e8bd81f0 	pop	{r4, r5, r6, r7, r8, pc}
     490:	e3a00000 	mov	r0, #0
     494:	e8bd81f0 	pop	{r4, r5, r6, r7, r8, pc}
     498:	e3a00000 	mov	r0, #0
     49c:	e8bd81f0 	pop	{r4, r5, r6, r7, r8, pc}
     4a0:	000fac01 	andeq	sl, pc, r1, lsl #24
     4a4:	000fac02 	andeq	sl, pc, r2, lsl #24

000004a8 <wpa_parse_wpa_ie_wpa>:
     4a8:	e92d45f8 	push	{r3, r4, r5, r6, r7, r8, sl, lr}
     4ac:	e1a04002 	mov	r4, r2
     4b0:	e3a07000 	mov	r7, #0
     4b4:	e1a06001 	mov	r6, r1
     4b8:	e1a05000 	mov	r5, r0
     4bc:	e3a01000 	mov	r1, #0
     4c0:	e1a00002 	mov	r0, r2
     4c4:	e3a02020 	mov	r2, #32
     4c8:	eb0076f9 	bl	1e0b4 <memset>
     4cc:	e3a03001 	mov	r3, #1
     4d0:	e3a02008 	mov	r2, #8
     4d4:	e1560007 	cmp	r6, r7
     4d8:	e5843000 	str	r3, [r4]
     4dc:	e5842004 	str	r2, [r4, #4]
     4e0:	e5842008 	str	r2, [r4, #8]
     4e4:	e584300c 	str	r3, [r4, #12]
     4e8:	e5847010 	str	r7, [r4, #16]
     4ec:	e5847018 	str	r7, [r4, #24]
     4f0:	e5847014 	str	r7, [r4, #20]
     4f4:	e584701c 	str	r7, [r4, #28]
     4f8:	03e00000 	mvneq	r0, #0
     4fc:	08bd85f8 	popeq	{r3, r4, r5, r6, r7, r8, sl, pc}
     500:	e2463006 	sub	r3, r6, #6
     504:	e3530003 	cmp	r3, #3
     508:	da000006 	ble	528 <wpa_parse_wpa_ie_wpa+0x80>
     50c:	e2850006 	add	r0, r5, #6
     510:	ebfffeec 	bl	c8 <wpa_selector_to_bitfield>
     514:	e246300a 	sub	r3, r6, #10
     518:	e3530001 	cmp	r3, #1
     51c:	e5840008 	str	r0, [r4, #8]
     520:	ca000003 	bgt	534 <wpa_parse_wpa_ie_wpa+0x8c>
     524:	ea000016 	b	584 <wpa_parse_wpa_ie_wpa+0xdc>
     528:	e3530000 	cmp	r3, #0
     52c:	da000052 	ble	67c <wpa_parse_wpa_ie_wpa+0x1d4>
     530:	ea000049 	b	65c <wpa_parse_wpa_ie_wpa+0x1b4>
     534:	e5847004 	str	r7, [r4, #4]
     538:	e5d5800b 	ldrb	r8, [r5, #11]
     53c:	e5d5300a 	ldrb	r3, [r5, #10]
     540:	e1938408 	orrs	r8, r3, r8, lsl #8
     544:	0a000046 	beq	664 <wpa_parse_wpa_ie_wpa+0x1bc>
     548:	e246600c 	sub	r6, r6, #12
     54c:	e1560108 	cmp	r6, r8, lsl #2
     550:	ba000043 	blt	664 <wpa_parse_wpa_ie_wpa+0x1bc>
     554:	e285500c 	add	r5, r5, #12
     558:	e1a00005 	mov	r0, r5
     55c:	ebfffed9 	bl	c8 <wpa_selector_to_bitfield>
     560:	e5943004 	ldr	r3, [r4, #4]
     564:	e2877001 	add	r7, r7, #1
     568:	e1833000 	orr	r3, r3, r0
     56c:	e1570008 	cmp	r7, r8
     570:	e5843004 	str	r3, [r4, #4]
     574:	e2855004 	add	r5, r5, #4
     578:	e2466004 	sub	r6, r6, #4
     57c:	bafffff5 	blt	558 <wpa_parse_wpa_ie_wpa+0xb0>
     580:	ea000002 	b	590 <wpa_parse_wpa_ie_wpa+0xe8>
     584:	03e00004 	mvneq	r0, #4
     588:	08bd85f8 	popeq	{r3, r4, r5, r6, r7, r8, sl, pc}
     58c:	ea00003a 	b	67c <wpa_parse_wpa_ie_wpa+0x1d4>
     590:	e3560001 	cmp	r6, #1
     594:	da000026 	ble	634 <wpa_parse_wpa_ie_wpa+0x18c>
     598:	e3a03000 	mov	r3, #0
     59c:	e584300c 	str	r3, [r4, #12]
     5a0:	e5d51001 	ldrb	r1, [r5, #1]
     5a4:	e5d52000 	ldrb	r2, [r5]
     5a8:	e1921401 	orrs	r1, r2, r1, lsl #8
     5ac:	0a00002e 	beq	66c <wpa_parse_wpa_ie_wpa+0x1c4>
     5b0:	e2466002 	sub	r6, r6, #2
     5b4:	e1560101 	cmp	r6, r1, lsl #2
     5b8:	ba00002b 	blt	66c <wpa_parse_wpa_ie_wpa+0x1c4>
     5bc:	e59f70c0 	ldr	r7, [pc, #192]	; 684 <wpa_parse_wpa_ie_wpa+0x1dc>
     5c0:	e59fc0c0 	ldr	ip, [pc, #192]	; 688 <wpa_parse_wpa_ie_wpa+0x1e0>
     5c4:	e59f00c0 	ldr	r0, [pc, #192]	; 68c <wpa_parse_wpa_ie_wpa+0x1e4>
     5c8:	e2855002 	add	r5, r5, #2
     5cc:	e5d52001 	ldrb	r2, [r5, #1]
     5d0:	e5d5a000 	ldrb	sl, [r5]
     5d4:	e1a02802 	lsl	r2, r2, #16
     5d8:	e1822c0a 	orr	r2, r2, sl, lsl #24
     5dc:	e5d5a003 	ldrb	sl, [r5, #3]
     5e0:	e182200a 	orr	r2, r2, sl
     5e4:	e5d5a002 	ldrb	sl, [r5, #2]
     5e8:	e182240a 	orr	r2, r2, sl, lsl #8
     5ec:	e1520007 	cmp	r2, r7
     5f0:	e594800c 	ldr	r8, [r4, #12]
     5f4:	03a02001 	moveq	r2, #1
     5f8:	0a000005 	beq	614 <wpa_parse_wpa_ie_wpa+0x16c>
     5fc:	e152000c 	cmp	r2, ip
     600:	03a02002 	moveq	r2, #2
     604:	0a000002 	beq	614 <wpa_parse_wpa_ie_wpa+0x16c>
     608:	e1520000 	cmp	r2, r0
     60c:	03a02010 	moveq	r2, #16
     610:	13a02000 	movne	r2, #0
     614:	e2833001 	add	r3, r3, #1
     618:	e1822008 	orr	r2, r2, r8
     61c:	e1530001 	cmp	r3, r1
     620:	e584200c 	str	r2, [r4, #12]
     624:	e2855004 	add	r5, r5, #4
     628:	e2466004 	sub	r6, r6, #4
     62c:	baffffe6 	blt	5cc <wpa_parse_wpa_ie_wpa+0x124>
     630:	ea000002 	b	640 <wpa_parse_wpa_ie_wpa+0x198>
     634:	03e00006 	mvneq	r0, #6
     638:	08bd85f8 	popeq	{r3, r4, r5, r6, r7, r8, sl, pc}
     63c:	ea00000e 	b	67c <wpa_parse_wpa_ie_wpa+0x1d4>
     640:	e3560001 	cmp	r6, #1
     644:	da00000a 	ble	674 <wpa_parse_wpa_ie_wpa+0x1cc>
     648:	e5d52001 	ldrb	r2, [r5, #1]
     64c:	e5d53000 	ldrb	r3, [r5]
     650:	e1833402 	orr	r3, r3, r2, lsl #8
     654:	e5843010 	str	r3, [r4, #16]
     658:	ea000007 	b	67c <wpa_parse_wpa_ie_wpa+0x1d4>
     65c:	e3e00002 	mvn	r0, #2
     660:	e8bd85f8 	pop	{r3, r4, r5, r6, r7, r8, sl, pc}
     664:	e3e00003 	mvn	r0, #3
     668:	e8bd85f8 	pop	{r3, r4, r5, r6, r7, r8, sl, pc}
     66c:	e3e00005 	mvn	r0, #5
     670:	e8bd85f8 	pop	{r3, r4, r5, r6, r7, r8, sl, pc}
     674:	e3a00000 	mov	r0, #0
     678:	e8bd85f8 	pop	{r3, r4, r5, r6, r7, r8, sl, pc}
     67c:	e3a00000 	mov	r0, #0
     680:	e8bd85f8 	pop	{r3, r4, r5, r6, r7, r8, sl, pc}
     684:	0050f201 	subseq	pc, r0, r1, lsl #4
     688:	0050f202 	subseq	pc, r0, r2, lsl #4
     68c:	0050f200 	subseq	pc, r0, r0, lsl #4

00000690 <wpa_cipher_txt>:
     690:	e2400001 	sub	r0, r0, #1
     694:	e3500017 	cmp	r0, #23
     698:	959f3008 	ldrls	r3, [pc, #8]	; 6a8 <wpa_cipher_txt+0x18>
     69c:	859f0008 	ldrhi	r0, [pc, #8]	; 6ac <wpa_cipher_txt+0x1c>
     6a0:	97930100 	ldrls	r0, [r3, r0, lsl #2]
     6a4:	e1a0f00e 	mov	pc, lr
     6a8:	00023b4c 	andeq	r3, r2, ip, asr #22
     6ac:	00025761 	andeq	r5, r2, r1, ror #14

000006b0 <wpa_compare_rsn_ie>:
     6b0:	e3510000 	cmp	r1, #0
     6b4:	13530000 	cmpne	r3, #0
     6b8:	e92d40f8 	push	{r3, r4, r5, r6, r7, lr}
     6bc:	03e00000 	mvneq	r0, #0
     6c0:	e1a04002 	mov	r4, r2
     6c4:	e1a05003 	mov	r5, r3
     6c8:	e1a07001 	mov	r7, r1
     6cc:	08bd80f8 	popeq	{r3, r4, r5, r6, r7, pc}
     6d0:	e59d3018 	ldr	r3, [sp, #24]
     6d4:	e1520003 	cmp	r2, r3
     6d8:	1a000035 	bne	7b4 <wpa_compare_rsn_ie+0x104>
     6dc:	e1a00001 	mov	r0, r1
     6e0:	e1a01005 	mov	r1, r5
     6e4:	eb0076b3 	bl	1e1b8 <memcmp>
     6e8:	e3500000 	cmp	r0, #0
     6ec:	08bd80f8 	popeq	{r3, r4, r5, r6, r7, pc}
     6f0:	e1a00004 	mov	r0, r4
     6f4:	eb0013bd 	bl	55f0 <os_malloc>
     6f8:	e1a01007 	mov	r1, r7
     6fc:	e1a02004 	mov	r2, r4
     700:	e1a06000 	mov	r6, r0
     704:	eb0076a3 	bl	1e198 <memcpy>
     708:	e3540009 	cmp	r4, #9
     70c:	9a000021 	bls	798 <wpa_compare_rsn_ie+0xe8>
     710:	e5d53008 	ldrb	r3, [r5, #8]
     714:	e5d52009 	ldrb	r2, [r5, #9]
     718:	e1832402 	orr	r2, r3, r2, lsl #8
     71c:	e1a02102 	lsl	r2, r2, #2
     720:	e282300c 	add	r3, r2, #12
     724:	e1540003 	cmp	r4, r3
     728:	3a00001a 	bcc	798 <wpa_compare_rsn_ie+0xe8>
     72c:	e282200a 	add	r2, r2, #10
     730:	e0853002 	add	r3, r5, r2
     734:	e5d31001 	ldrb	r1, [r3, #1]
     738:	e7d53002 	ldrb	r3, [r5, r2]
     73c:	e1833401 	orr	r3, r3, r1, lsl #8
     740:	e0823103 	add	r3, r2, r3, lsl #2
     744:	e2832004 	add	r2, r3, #4
     748:	e1540002 	cmp	r4, r2
     74c:	e2833002 	add	r3, r3, #2
     750:	3a000010 	bcc	798 <wpa_compare_rsn_ie+0xe8>
     754:	e7d62003 	ldrb	r2, [r6, r3]
     758:	e3520000 	cmp	r2, #0
     75c:	e0860003 	add	r0, r6, r3
     760:	1a00000c 	bne	798 <wpa_compare_rsn_ie+0xe8>
     764:	e2832001 	add	r2, r3, #1
     768:	e7d61002 	ldrb	r1, [r6, r2]
     76c:	e3510000 	cmp	r1, #0
     770:	1a000008 	bne	798 <wpa_compare_rsn_ie+0xe8>
     774:	e0851003 	add	r1, r5, r3
     778:	e7d53003 	ldrb	r3, [r5, r3]
     77c:	e3530000 	cmp	r3, #0
     780:	1a000002 	bne	790 <wpa_compare_rsn_ie+0xe0>
     784:	e7d53002 	ldrb	r3, [r5, r2]
     788:	e3530000 	cmp	r3, #0
     78c:	0a000001 	beq	798 <wpa_compare_rsn_ie+0xe8>
     790:	e3a02002 	mov	r2, #2
     794:	eb00767f 	bl	1e198 <memcpy>
     798:	e1a00006 	mov	r0, r6
     79c:	e1a01005 	mov	r1, r5
     7a0:	e1a02004 	mov	r2, r4
     7a4:	eb007683 	bl	1e1b8 <memcmp>
     7a8:	e3500000 	cmp	r0, #0
     7ac:	13e00000 	mvnne	r0, #0
     7b0:	e8bd80f8 	pop	{r3, r4, r5, r6, r7, pc}
     7b4:	e3e00000 	mvn	r0, #0
     7b8:	e8bd80f8 	pop	{r3, r4, r5, r6, r7, pc}

000007bc <wpa_key_mgmt_wpa_ieee8021x>:
     7bc:	e31000a1 	tst	r0, #161	; 0xa1
     7c0:	03a00000 	moveq	r0, #0
     7c4:	13a00001 	movne	r0, #1
     7c8:	e1a0f00e 	mov	pc, lr

000007cc <wpa_key_mgmt_wpa_psk>:
     7cc:	e59f300c 	ldr	r3, [pc, #12]	; 7e0 <wpa_key_mgmt_wpa_psk+0x14>
     7d0:	e0003003 	and	r3, r0, r3
     7d4:	e2930000 	adds	r0, r3, #0
     7d8:	13a00001 	movne	r0, #1
     7dc:	e1a0f00e 	mov	pc, lr
     7e0:	00000142 	andeq	r0, r0, r2, asr #2

000007e4 <wpa_key_mgmt_ft>:
     7e4:	e3100060 	tst	r0, #96	; 0x60
     7e8:	03a00000 	moveq	r0, #0
     7ec:	13a00001 	movne	r0, #1
     7f0:	e1a0f00e 	mov	pc, lr

000007f4 <wpa_key_mgmt_sha256>:
     7f4:	e3100d06 	tst	r0, #384	; 0x180
     7f8:	03a00000 	moveq	r0, #0
     7fc:	13a00001 	movne	r0, #1
     800:	e1a0f00e 	mov	pc, lr

00000804 <wpa_key_mgmt_wpa>:
     804:	e31000a1 	tst	r0, #161	; 0xa1
     808:	1a000004 	bne	820 <wpa_key_mgmt_wpa+0x1c>
     80c:	e59f3014 	ldr	r3, [pc, #20]	; 828 <wpa_key_mgmt_wpa+0x24>
     810:	e0003003 	and	r3, r0, r3
     814:	e2930000 	adds	r0, r3, #0
     818:	13a00001 	movne	r0, #1
     81c:	e1a0f00e 	mov	pc, lr
     820:	e3a00001 	mov	r0, #1
     824:	e1a0f00e 	mov	pc, lr
     828:	00000142 	andeq	r0, r0, r2, asr #2

0000082c <rijndaelKeySetupEnc>:
     82c:	e92d4030 	push	{r4, r5, lr}
     830:	e5d13001 	ldrb	r3, [r1, #1]
     834:	e5d12000 	ldrb	r2, [r1]
     838:	e1a03803 	lsl	r3, r3, #16
     83c:	e1833c02 	orr	r3, r3, r2, lsl #24
     840:	e5d12003 	ldrb	r2, [r1, #3]
     844:	e0233002 	eor	r3, r3, r2
     848:	e5d12002 	ldrb	r2, [r1, #2]
     84c:	e1833402 	orr	r3, r3, r2, lsl #8
     850:	e5803000 	str	r3, [r0]
     854:	e5d13005 	ldrb	r3, [r1, #5]
     858:	e5d12004 	ldrb	r2, [r1, #4]
     85c:	e1a03803 	lsl	r3, r3, #16
     860:	e1833c02 	orr	r3, r3, r2, lsl #24
     864:	e5d12007 	ldrb	r2, [r1, #7]
     868:	e0233002 	eor	r3, r3, r2
     86c:	e5d12006 	ldrb	r2, [r1, #6]
     870:	e1833402 	orr	r3, r3, r2, lsl #8
     874:	e5803004 	str	r3, [r0, #4]
     878:	e5d13009 	ldrb	r3, [r1, #9]
     87c:	e5d12008 	ldrb	r2, [r1, #8]
     880:	e1a03803 	lsl	r3, r3, #16
     884:	e1833c02 	orr	r3, r3, r2, lsl #24
     888:	e5d1200b 	ldrb	r2, [r1, #11]
     88c:	e0233002 	eor	r3, r3, r2
     890:	e5d1200a 	ldrb	r2, [r1, #10]
     894:	e1833402 	orr	r3, r3, r2, lsl #8
     898:	e5803008 	str	r3, [r0, #8]
     89c:	e5d1300d 	ldrb	r3, [r1, #13]
     8a0:	e5d1200c 	ldrb	r2, [r1, #12]
     8a4:	e1a03803 	lsl	r3, r3, #16
     8a8:	e1833c02 	orr	r3, r3, r2, lsl #24
     8ac:	e5d1200f 	ldrb	r2, [r1, #15]
     8b0:	e0233002 	eor	r3, r3, r2
     8b4:	e5d1200e 	ldrb	r2, [r1, #14]
     8b8:	e1833402 	orr	r3, r3, r2, lsl #8
     8bc:	e580300c 	str	r3, [r0, #12]
     8c0:	e59f3098 	ldr	r3, [pc, #152]	; 960 <rijndaelKeySetupEnc+0x134>
     8c4:	e3a01000 	mov	r1, #0
     8c8:	e2834b01 	add	r4, r3, #1024	; 0x400
     8cc:	e590200c 	ldr	r2, [r0, #12]
     8d0:	e202c0ff 	and	ip, r2, #255	; 0xff
     8d4:	e793c10c 	ldr	ip, [r3, ip, lsl #2]
     8d8:	e5905000 	ldr	r5, [r0]
     8dc:	e20cccff 	and	ip, ip, #65280	; 0xff00
     8e0:	e02cc005 	eor	ip, ip, r5
     8e4:	e1a05422 	lsr	r5, r2, #8
     8e8:	e20550ff 	and	r5, r5, #255	; 0xff
     8ec:	e7935105 	ldr	r5, [r3, r5, lsl #2]
     8f0:	e20558ff 	and	r5, r5, #16711680	; 0xff0000
     8f4:	e02cc005 	eor	ip, ip, r5
     8f8:	e1a05c22 	lsr	r5, r2, #24
     8fc:	e0835105 	add	r5, r3, r5, lsl #2
     900:	e5d55001 	ldrb	r5, [r5, #1]
     904:	e02cc005 	eor	ip, ip, r5
     908:	e7d15004 	ldrb	r5, [r1, r4]
     90c:	e02ccc05 	eor	ip, ip, r5, lsl #24
     910:	e1a05822 	lsr	r5, r2, #16
     914:	e20550ff 	and	r5, r5, #255	; 0xff
     918:	e7935105 	ldr	r5, [r3, r5, lsl #2]
     91c:	e1a05405 	lsl	r5, r5, #8
     920:	e20554ff 	and	r5, r5, #-16777216	; 0xff000000
     924:	e02cc005 	eor	ip, ip, r5
     928:	e5905004 	ldr	r5, [r0, #4]
     92c:	e580c010 	str	ip, [r0, #16]
     930:	e02cc005 	eor	ip, ip, r5
     934:	e5905008 	ldr	r5, [r0, #8]
     938:	e580c014 	str	ip, [r0, #20]
     93c:	e2811001 	add	r1, r1, #1
     940:	e02cc005 	eor	ip, ip, r5
     944:	e02c2002 	eor	r2, ip, r2
     948:	e351000a 	cmp	r1, #10
     94c:	e580c018 	str	ip, [r0, #24]
     950:	e580201c 	str	r2, [r0, #28]
     954:	e2800010 	add	r0, r0, #16
     958:	1affffdb 	bne	8cc <rijndaelKeySetupEnc+0xa0>
     95c:	e8bd8030 	pop	{r4, r5, pc}
     960:	00023bac 	andeq	r3, r2, ip, lsr #23

00000964 <rijndaelKeySetupDec>:
     964:	e92d4070 	push	{r4, r5, r6, lr}
     968:	e1a04000 	mov	r4, r0
     96c:	ebffffae 	bl	82c <rijndaelKeySetupEnc>
     970:	e1a03004 	mov	r3, r4
     974:	e1a02004 	mov	r2, r4
     978:	e3a01000 	mov	r1, #0
     97c:	e7940001 	ldr	r0, [r4, r1]
     980:	e593c0a0 	ldr	ip, [r3, #160]	; 0xa0
     984:	e784c001 	str	ip, [r4, r1]
     988:	e58300a0 	str	r0, [r3, #160]	; 0xa0
     98c:	e593c0a4 	ldr	ip, [r3, #164]	; 0xa4
     990:	e5920004 	ldr	r0, [r2, #4]
     994:	e582c004 	str	ip, [r2, #4]
     998:	e58300a4 	str	r0, [r3, #164]	; 0xa4
     99c:	e593c0a8 	ldr	ip, [r3, #168]	; 0xa8
     9a0:	e5920008 	ldr	r0, [r2, #8]
     9a4:	e582c008 	str	ip, [r2, #8]
     9a8:	e58300a8 	str	r0, [r3, #168]	; 0xa8
     9ac:	e593c0ac 	ldr	ip, [r3, #172]	; 0xac
     9b0:	e592000c 	ldr	r0, [r2, #12]
     9b4:	e2811010 	add	r1, r1, #16
     9b8:	e3510050 	cmp	r1, #80	; 0x50
     9bc:	e582c00c 	str	ip, [r2, #12]
     9c0:	e58300ac 	str	r0, [r3, #172]	; 0xac
     9c4:	e2822010 	add	r2, r2, #16
     9c8:	e2433010 	sub	r3, r3, #16
     9cc:	1affffea 	bne	97c <rijndaelKeySetupDec+0x18>
     9d0:	e59f1080 	ldr	r1, [pc, #128]	; a58 <rijndaelKeySetupDec+0xf4>
     9d4:	e59f2080 	ldr	r2, [pc, #128]	; a5c <rijndaelKeySetupDec+0xf8>
     9d8:	e284c090 	add	ip, r4, #144	; 0x90
     9dc:	e2844010 	add	r4, r4, #16
     9e0:	e2443010 	sub	r3, r4, #16
     9e4:	e5930010 	ldr	r0, [r3, #16]
     9e8:	e20050ff 	and	r5, r0, #255	; 0xff
     9ec:	e0825105 	add	r5, r2, r5, lsl #2
     9f0:	e5d55001 	ldrb	r5, [r5, #1]
     9f4:	e7916105 	ldr	r6, [r1, r5, lsl #2]
     9f8:	e1a05c20 	lsr	r5, r0, #24
     9fc:	e0825105 	add	r5, r2, r5, lsl #2
     a00:	e5d55001 	ldrb	r5, [r5, #1]
     a04:	e7915105 	ldr	r5, [r1, r5, lsl #2]
     a08:	e0255c66 	eor	r5, r5, r6, ror #24
     a0c:	e1a06820 	lsr	r6, r0, #16
     a10:	e20660ff 	and	r6, r6, #255	; 0xff
     a14:	e1a00420 	lsr	r0, r0, #8
     a18:	e0826106 	add	r6, r2, r6, lsl #2
     a1c:	e20000ff 	and	r0, r0, #255	; 0xff
     a20:	e5d66001 	ldrb	r6, [r6, #1]
     a24:	e0820100 	add	r0, r2, r0, lsl #2
     a28:	e5d00001 	ldrb	r0, [r0, #1]
     a2c:	e7916106 	ldr	r6, [r1, r6, lsl #2]
     a30:	e7910100 	ldr	r0, [r1, r0, lsl #2]
     a34:	e0255466 	eor	r5, r5, r6, ror #8
     a38:	e0250860 	eor	r0, r5, r0, ror #16
     a3c:	e5830010 	str	r0, [r3, #16]
     a40:	e2833004 	add	r3, r3, #4
     a44:	e1530004 	cmp	r3, r4
     a48:	1affffe5 	bne	9e4 <rijndaelKeySetupDec+0x80>
     a4c:	e153000c 	cmp	r3, ip
     a50:	1affffe1 	bne	9dc <rijndaelKeySetupDec+0x78>
     a54:	e8bd8070 	pop	{r4, r5, r6, pc}
     a58:	000240b8 	strheq	r4, [r2], -r8
     a5c:	00023bac 	andeq	r3, r2, ip, lsr #23

00000a60 <aes_decrypt_init>:
     a60:	e3510010 	cmp	r1, #16
     a64:	e92d4038 	push	{r3, r4, r5, lr}
     a68:	e1a05000 	mov	r5, r0
     a6c:	13a04000 	movne	r4, #0
     a70:	1a000004 	bne	a88 <aes_decrypt_init+0x28>
     a74:	e3a000b0 	mov	r0, #176	; 0xb0
     a78:	eb0012dc 	bl	55f0 <os_malloc>
     a7c:	e2504000 	subs	r4, r0, #0
     a80:	11a01005 	movne	r1, r5
     a84:	1bffffb6 	blne	964 <rijndaelKeySetupDec>
     a88:	e1a00004 	mov	r0, r4
     a8c:	e8bd8038 	pop	{r3, r4, r5, pc}

00000a90 <aes_decrypt>:
     a90:	e92d4ff0 	push	{r4, r5, r6, r7, r8, r9, sl, fp, lr}
     a94:	e5903000 	ldr	r3, [r0]
     a98:	e5d1a003 	ldrb	sl, [r1, #3]
     a9c:	e02aa003 	eor	sl, sl, r3
     aa0:	e5d13000 	ldrb	r3, [r1]
     aa4:	e02aac03 	eor	sl, sl, r3, lsl #24
     aa8:	e5d13001 	ldrb	r3, [r1, #1]
     aac:	e02aa803 	eor	sl, sl, r3, lsl #16
     ab0:	e5d13002 	ldrb	r3, [r1, #2]
     ab4:	e5d18007 	ldrb	r8, [r1, #7]
     ab8:	e02aa403 	eor	sl, sl, r3, lsl #8
     abc:	e5903004 	ldr	r3, [r0, #4]
     ac0:	e0288003 	eor	r8, r8, r3
     ac4:	e5d13004 	ldrb	r3, [r1, #4]
     ac8:	e0288c03 	eor	r8, r8, r3, lsl #24
     acc:	e5d13005 	ldrb	r3, [r1, #5]
     ad0:	e0288803 	eor	r8, r8, r3, lsl #16
     ad4:	e5d13006 	ldrb	r3, [r1, #6]
     ad8:	e5d1700b 	ldrb	r7, [r1, #11]
     adc:	e0288403 	eor	r8, r8, r3, lsl #8
     ae0:	e5903008 	ldr	r3, [r0, #8]
     ae4:	e0277003 	eor	r7, r7, r3
     ae8:	e5d13008 	ldrb	r3, [r1, #8]
     aec:	e0277c03 	eor	r7, r7, r3, lsl #24
     af0:	e5d13009 	ldrb	r3, [r1, #9]
     af4:	e0277803 	eor	r7, r7, r3, lsl #16
     af8:	e5d1300a 	ldrb	r3, [r1, #10]
     afc:	e5d1600f 	ldrb	r6, [r1, #15]
     b00:	e0277403 	eor	r7, r7, r3, lsl #8
     b04:	e590300c 	ldr	r3, [r0, #12]
     b08:	e0266003 	eor	r6, r6, r3
     b0c:	e5d1300c 	ldrb	r3, [r1, #12]
     b10:	e0266c03 	eor	r6, r6, r3, lsl #24
     b14:	e5d1300d 	ldrb	r3, [r1, #13]
     b18:	e0266803 	eor	r6, r6, r3, lsl #16
     b1c:	e5d1300e 	ldrb	r3, [r1, #14]
     b20:	e0266403 	eor	r6, r6, r3, lsl #8
     b24:	e59f334c 	ldr	r3, [pc, #844]	; e78 <aes_decrypt+0x3e8>
     b28:	e1a01000 	mov	r1, r0
     b2c:	e280b080 	add	fp, r0, #128	; 0x80
     b30:	e1a0cc2a 	lsr	ip, sl, #24
     b34:	e793c10c 	ldr	ip, [r3, ip, lsl #2]
     b38:	e5915010 	ldr	r5, [r1, #16]
     b3c:	e025500c 	eor	r5, r5, ip
     b40:	e208c0ff 	and	ip, r8, #255	; 0xff
     b44:	e793c10c 	ldr	ip, [r3, ip, lsl #2]
     b48:	e0255c6c 	eor	r5, r5, ip, ror #24
     b4c:	e1a0c826 	lsr	ip, r6, #16
     b50:	e20cc0ff 	and	ip, ip, #255	; 0xff
     b54:	e793c10c 	ldr	ip, [r3, ip, lsl #2]
     b58:	e025546c 	eor	r5, r5, ip, ror #8
     b5c:	e1a0c427 	lsr	ip, r7, #8
     b60:	e20cc0ff 	and	ip, ip, #255	; 0xff
     b64:	e793c10c 	ldr	ip, [r3, ip, lsl #2]
     b68:	e025586c 	eor	r5, r5, ip, ror #16
     b6c:	e1a0cc28 	lsr	ip, r8, #24
     b70:	e5914014 	ldr	r4, [r1, #20]
     b74:	e793c10c 	ldr	ip, [r3, ip, lsl #2]
     b78:	e024c00c 	eor	ip, r4, ip
     b7c:	e20740ff 	and	r4, r7, #255	; 0xff
     b80:	e7934104 	ldr	r4, [r3, r4, lsl #2]
     b84:	e02ccc64 	eor	ip, ip, r4, ror #24
     b88:	e1a0482a 	lsr	r4, sl, #16
     b8c:	e20440ff 	and	r4, r4, #255	; 0xff
     b90:	e7934104 	ldr	r4, [r3, r4, lsl #2]
     b94:	e02cc464 	eor	ip, ip, r4, ror #8
     b98:	e1a04426 	lsr	r4, r6, #8
     b9c:	e20440ff 	and	r4, r4, #255	; 0xff
     ba0:	e7934104 	ldr	r4, [r3, r4, lsl #2]
     ba4:	e02cc864 	eor	ip, ip, r4, ror #16
     ba8:	e1a04c27 	lsr	r4, r7, #24
     bac:	e5919018 	ldr	r9, [r1, #24]
     bb0:	e7934104 	ldr	r4, [r3, r4, lsl #2]
     bb4:	e0294004 	eor	r4, r9, r4
     bb8:	e20690ff 	and	r9, r6, #255	; 0xff
     bbc:	e7939109 	ldr	r9, [r3, r9, lsl #2]
     bc0:	e0244c69 	eor	r4, r4, r9, ror #24
     bc4:	e1a09828 	lsr	r9, r8, #16
     bc8:	e20990ff 	and	r9, r9, #255	; 0xff
     bcc:	e7939109 	ldr	r9, [r3, r9, lsl #2]
     bd0:	e0244469 	eor	r4, r4, r9, ror #8
     bd4:	e1a0942a 	lsr	r9, sl, #8
     bd8:	e20990ff 	and	r9, r9, #255	; 0xff
     bdc:	e7939109 	ldr	r9, [r3, r9, lsl #2]
     be0:	e1a06c26 	lsr	r6, r6, #24
     be4:	e0244869 	eor	r4, r4, r9, ror #16
     be8:	e7936106 	ldr	r6, [r3, r6, lsl #2]
     bec:	e591901c 	ldr	r9, [r1, #28]
     bf0:	e20aa0ff 	and	sl, sl, #255	; 0xff
     bf4:	e0296006 	eor	r6, r9, r6
     bf8:	e1a07827 	lsr	r7, r7, #16
     bfc:	e793910a 	ldr	r9, [r3, sl, lsl #2]
     c00:	e20770ff 	and	r7, r7, #255	; 0xff
     c04:	e1a08428 	lsr	r8, r8, #8
     c08:	e0266c69 	eor	r6, r6, r9, ror #24
     c0c:	e20880ff 	and	r8, r8, #255	; 0xff
     c10:	e7939107 	ldr	r9, [r3, r7, lsl #2]
     c14:	e7937108 	ldr	r7, [r3, r8, lsl #2]
     c18:	e0266469 	eor	r6, r6, r9, ror #8
     c1c:	e151000b 	cmp	r1, fp
     c20:	e0266867 	eor	r6, r6, r7, ror #16
     c24:	0a00003d 	beq	d20 <aes_decrypt+0x290>
     c28:	e1a07c25 	lsr	r7, r5, #24
     c2c:	e793a107 	ldr	sl, [r3, r7, lsl #2]
     c30:	e5917020 	ldr	r7, [r1, #32]
     c34:	e02aa007 	eor	sl, sl, r7
     c38:	e20c70ff 	and	r7, ip, #255	; 0xff
     c3c:	e7937107 	ldr	r7, [r3, r7, lsl #2]
     c40:	e02aac67 	eor	sl, sl, r7, ror #24
     c44:	e1a07826 	lsr	r7, r6, #16
     c48:	e20770ff 	and	r7, r7, #255	; 0xff
     c4c:	e7937107 	ldr	r7, [r3, r7, lsl #2]
     c50:	e02aa467 	eor	sl, sl, r7, ror #8
     c54:	e1a07424 	lsr	r7, r4, #8
     c58:	e20770ff 	and	r7, r7, #255	; 0xff
     c5c:	e7937107 	ldr	r7, [r3, r7, lsl #2]
     c60:	e02aa867 	eor	sl, sl, r7, ror #16
     c64:	e1a07c2c 	lsr	r7, ip, #24
     c68:	e7938107 	ldr	r8, [r3, r7, lsl #2]
     c6c:	e5917024 	ldr	r7, [r1, #36]	; 0x24
     c70:	e0288007 	eor	r8, r8, r7
     c74:	e20470ff 	and	r7, r4, #255	; 0xff
     c78:	e7937107 	ldr	r7, [r3, r7, lsl #2]
     c7c:	e0288c67 	eor	r8, r8, r7, ror #24
     c80:	e1a07825 	lsr	r7, r5, #16
     c84:	e20770ff 	and	r7, r7, #255	; 0xff
     c88:	e7937107 	ldr	r7, [r3, r7, lsl #2]
     c8c:	e0288467 	eor	r8, r8, r7, ror #8
     c90:	e1a07426 	lsr	r7, r6, #8
     c94:	e20770ff 	and	r7, r7, #255	; 0xff
     c98:	e7937107 	ldr	r7, [r3, r7, lsl #2]
     c9c:	e0288867 	eor	r8, r8, r7, ror #16
     ca0:	e1a07c24 	lsr	r7, r4, #24
     ca4:	e7939107 	ldr	r9, [r3, r7, lsl #2]
     ca8:	e5917028 	ldr	r7, [r1, #40]	; 0x28
     cac:	e0297007 	eor	r7, r9, r7
     cb0:	e20690ff 	and	r9, r6, #255	; 0xff
     cb4:	e7939109 	ldr	r9, [r3, r9, lsl #2]
     cb8:	e0277c69 	eor	r7, r7, r9, ror #24
     cbc:	e1a0982c 	lsr	r9, ip, #16
     cc0:	e20990ff 	and	r9, r9, #255	; 0xff
     cc4:	e7939109 	ldr	r9, [r3, r9, lsl #2]
     cc8:	e0277469 	eor	r7, r7, r9, ror #8
     ccc:	e1a09425 	lsr	r9, r5, #8
     cd0:	e20990ff 	and	r9, r9, #255	; 0xff
     cd4:	e7939109 	ldr	r9, [r3, r9, lsl #2]
     cd8:	e1a06c26 	lsr	r6, r6, #24
     cdc:	e0277869 	eor	r7, r7, r9, ror #16
     ce0:	e7939106 	ldr	r9, [r3, r6, lsl #2]
     ce4:	e591602c 	ldr	r6, [r1, #44]	; 0x2c
     ce8:	e20550ff 	and	r5, r5, #255	; 0xff
     cec:	e0296006 	eor	r6, r9, r6
     cf0:	e1a04824 	lsr	r4, r4, #16
     cf4:	e7939105 	ldr	r9, [r3, r5, lsl #2]
     cf8:	e20440ff 	and	r4, r4, #255	; 0xff
     cfc:	e1a0c42c 	lsr	ip, ip, #8
     d00:	e0266c69 	eor	r6, r6, r9, ror #24
     d04:	e20cc0ff 	and	ip, ip, #255	; 0xff
     d08:	e7939104 	ldr	r9, [r3, r4, lsl #2]
     d0c:	e793c10c 	ldr	ip, [r3, ip, lsl #2]
     d10:	e0266469 	eor	r6, r6, r9, ror #8
     d14:	e026686c 	eor	r6, r6, ip, ror #16
     d18:	e2811020 	add	r1, r1, #32
     d1c:	eaffff83 	b	b30 <aes_decrypt+0xa0>
     d20:	e59f3154 	ldr	r3, [pc, #340]	; e7c <aes_decrypt+0x3ec>
     d24:	e20c10ff 	and	r1, ip, #255	; 0xff
     d28:	e7d37c25 	ldrb	r7, [r3, r5, lsr #24]
     d2c:	e7d31001 	ldrb	r1, [r3, r1]
     d30:	e1811c07 	orr	r1, r1, r7, lsl #24
     d34:	e1a07826 	lsr	r7, r6, #16
     d38:	e20770ff 	and	r7, r7, #255	; 0xff
     d3c:	e7d37007 	ldrb	r7, [r3, r7]
     d40:	e1811807 	orr	r1, r1, r7, lsl #16
     d44:	e1a07424 	lsr	r7, r4, #8
     d48:	e20770ff 	and	r7, r7, #255	; 0xff
     d4c:	e7d37007 	ldrb	r7, [r3, r7]
     d50:	e1811407 	orr	r1, r1, r7, lsl #8
     d54:	e59070a0 	ldr	r7, [r0, #160]	; 0xa0
     d58:	e0211007 	eor	r1, r1, r7
     d5c:	e1a07c21 	lsr	r7, r1, #24
     d60:	e5c27000 	strb	r7, [r2]
     d64:	e1a07821 	lsr	r7, r1, #16
     d68:	e5c27001 	strb	r7, [r2, #1]
     d6c:	e5c21003 	strb	r1, [r2, #3]
     d70:	e1a07421 	lsr	r7, r1, #8
     d74:	e20410ff 	and	r1, r4, #255	; 0xff
     d78:	e5c27002 	strb	r7, [r2, #2]
     d7c:	e7d31001 	ldrb	r1, [r3, r1]
     d80:	e7d37c2c 	ldrb	r7, [r3, ip, lsr #24]
     d84:	e1811c07 	orr	r1, r1, r7, lsl #24
     d88:	e1a07825 	lsr	r7, r5, #16
     d8c:	e20770ff 	and	r7, r7, #255	; 0xff
     d90:	e7d37007 	ldrb	r7, [r3, r7]
     d94:	e1811807 	orr	r1, r1, r7, lsl #16
     d98:	e1a07426 	lsr	r7, r6, #8
     d9c:	e20770ff 	and	r7, r7, #255	; 0xff
     da0:	e7d37007 	ldrb	r7, [r3, r7]
     da4:	e1811407 	orr	r1, r1, r7, lsl #8
     da8:	e59070a4 	ldr	r7, [r0, #164]	; 0xa4
     dac:	e0211007 	eor	r1, r1, r7
     db0:	e1a07c21 	lsr	r7, r1, #24
     db4:	e5c27004 	strb	r7, [r2, #4]
     db8:	e1a07821 	lsr	r7, r1, #16
     dbc:	e5c27005 	strb	r7, [r2, #5]
     dc0:	e5c21007 	strb	r1, [r2, #7]
     dc4:	e1a07421 	lsr	r7, r1, #8
     dc8:	e20610ff 	and	r1, r6, #255	; 0xff
     dcc:	e5c27006 	strb	r7, [r2, #6]
     dd0:	e7d31001 	ldrb	r1, [r3, r1]
     dd4:	e7d37c24 	ldrb	r7, [r3, r4, lsr #24]
     dd8:	e1811c07 	orr	r1, r1, r7, lsl #24
     ddc:	e1a0782c 	lsr	r7, ip, #16
     de0:	e20770ff 	and	r7, r7, #255	; 0xff
     de4:	e7d37007 	ldrb	r7, [r3, r7]
     de8:	e1811807 	orr	r1, r1, r7, lsl #16
     dec:	e1a07425 	lsr	r7, r5, #8
     df0:	e20770ff 	and	r7, r7, #255	; 0xff
     df4:	e7d37007 	ldrb	r7, [r3, r7]
     df8:	e1811407 	orr	r1, r1, r7, lsl #8
     dfc:	e59070a8 	ldr	r7, [r0, #168]	; 0xa8
     e00:	e0211007 	eor	r1, r1, r7
     e04:	e1a07c21 	lsr	r7, r1, #24
     e08:	e5c27008 	strb	r7, [r2, #8]
     e0c:	e20550ff 	and	r5, r5, #255	; 0xff
     e10:	e1a07821 	lsr	r7, r1, #16
     e14:	e1a04824 	lsr	r4, r4, #16
     e18:	e5c27009 	strb	r7, [r2, #9]
     e1c:	e5c2100b 	strb	r1, [r2, #11]
     e20:	e7d36c26 	ldrb	r6, [r3, r6, lsr #24]
     e24:	e1a07421 	lsr	r7, r1, #8
     e28:	e20440ff 	and	r4, r4, #255	; 0xff
     e2c:	e7d31005 	ldrb	r1, [r3, r5]
     e30:	e1a0c42c 	lsr	ip, ip, #8
     e34:	e7d34004 	ldrb	r4, [r3, r4]
     e38:	e20cc0ff 	and	ip, ip, #255	; 0xff
     e3c:	e5c2700a 	strb	r7, [r2, #10]
     e40:	e7d3300c 	ldrb	r3, [r3, ip]
     e44:	e1811c06 	orr	r1, r1, r6, lsl #24
     e48:	e1811804 	orr	r1, r1, r4, lsl #16
     e4c:	e1813403 	orr	r3, r1, r3, lsl #8
     e50:	e59010ac 	ldr	r1, [r0, #172]	; 0xac
     e54:	e0233001 	eor	r3, r3, r1
     e58:	e1a01c23 	lsr	r1, r3, #24
     e5c:	e5c2100c 	strb	r1, [r2, #12]
     e60:	e1a01823 	lsr	r1, r3, #16
     e64:	e5c2100d 	strb	r1, [r2, #13]
     e68:	e1a01423 	lsr	r1, r3, #8
     e6c:	e5c2100e 	strb	r1, [r2, #14]
     e70:	e5c2300f 	strb	r3, [r2, #15]
     e74:	e8bd8ff0 	pop	{r4, r5, r6, r7, r8, r9, sl, fp, pc}
     e78:	000240b8 	strheq	r4, [r2], -r8
     e7c:	00023fb6 			; <UNDEFINED> instruction: 0x00023fb6

00000e80 <aes_decrypt_deinit>:
     e80:	e92d4010 	push	{r4, lr}
     e84:	e3a01000 	mov	r1, #0
     e88:	e3a020b0 	mov	r2, #176	; 0xb0
     e8c:	e1a04000 	mov	r4, r0
     e90:	eb007487 	bl	1e0b4 <memset>
     e94:	e1a00004 	mov	r0, r4
     e98:	e8bd4010 	pop	{r4, lr}
     e9c:	ea0011d8 	b	5604 <os_free>

00000ea0 <rijndaelEncrypt>:
     ea0:	e92d4ff7 	push	{r0, r1, r2, r4, r5, r6, r7, r8, r9, sl, fp, lr}
     ea4:	e5903000 	ldr	r3, [r0]
     ea8:	e5d1a003 	ldrb	sl, [r1, #3]
     eac:	e02aa003 	eor	sl, sl, r3
     eb0:	e5d13000 	ldrb	r3, [r1]
     eb4:	e02aac03 	eor	sl, sl, r3, lsl #24
     eb8:	e5d13001 	ldrb	r3, [r1, #1]
     ebc:	e02aa803 	eor	sl, sl, r3, lsl #16
     ec0:	e5d13002 	ldrb	r3, [r1, #2]
     ec4:	e5d18007 	ldrb	r8, [r1, #7]
     ec8:	e02aa403 	eor	sl, sl, r3, lsl #8
     ecc:	e5903004 	ldr	r3, [r0, #4]
     ed0:	e0288003 	eor	r8, r8, r3
     ed4:	e5d13004 	ldrb	r3, [r1, #4]
     ed8:	e0288c03 	eor	r8, r8, r3, lsl #24
     edc:	e5d13005 	ldrb	r3, [r1, #5]
     ee0:	e0288803 	eor	r8, r8, r3, lsl #16
     ee4:	e5d13006 	ldrb	r3, [r1, #6]
     ee8:	e5d1700b 	ldrb	r7, [r1, #11]
     eec:	e0288403 	eor	r8, r8, r3, lsl #8
     ef0:	e5903008 	ldr	r3, [r0, #8]
     ef4:	e0277003 	eor	r7, r7, r3
     ef8:	e5d13008 	ldrb	r3, [r1, #8]
     efc:	e0277c03 	eor	r7, r7, r3, lsl #24
     f00:	e5d13009 	ldrb	r3, [r1, #9]
     f04:	e0277803 	eor	r7, r7, r3, lsl #16
     f08:	e5d1300a 	ldrb	r3, [r1, #10]
     f0c:	e5d1600f 	ldrb	r6, [r1, #15]
     f10:	e0277403 	eor	r7, r7, r3, lsl #8
     f14:	e590300c 	ldr	r3, [r0, #12]
     f18:	e0266003 	eor	r6, r6, r3
     f1c:	e5d1300c 	ldrb	r3, [r1, #12]
     f20:	e0266c03 	eor	r6, r6, r3, lsl #24
     f24:	e5d1300d 	ldrb	r3, [r1, #13]
     f28:	e0266803 	eor	r6, r6, r3, lsl #16
     f2c:	e5d1300e 	ldrb	r3, [r1, #14]
     f30:	e0266403 	eor	r6, r6, r3, lsl #8
     f34:	e2803080 	add	r3, r0, #128	; 0x80
     f38:	e58d3004 	str	r3, [sp, #4]
     f3c:	e59f33a8 	ldr	r3, [pc, #936]	; 12ec <rijndaelEncrypt+0x44c>
     f40:	e1a0c000 	mov	ip, r0
     f44:	e1a04c2a 	lsr	r4, sl, #24
     f48:	e7934104 	ldr	r4, [r3, r4, lsl #2]
     f4c:	e59c5010 	ldr	r5, [ip, #16]
     f50:	e0255004 	eor	r5, r5, r4
     f54:	e20640ff 	and	r4, r6, #255	; 0xff
     f58:	e7934104 	ldr	r4, [r3, r4, lsl #2]
     f5c:	e0255c64 	eor	r5, r5, r4, ror #24
     f60:	e1a04828 	lsr	r4, r8, #16
     f64:	e20440ff 	and	r4, r4, #255	; 0xff
     f68:	e7934104 	ldr	r4, [r3, r4, lsl #2]
     f6c:	e0255464 	eor	r5, r5, r4, ror #8
     f70:	e1a04427 	lsr	r4, r7, #8
     f74:	e20440ff 	and	r4, r4, #255	; 0xff
     f78:	e7934104 	ldr	r4, [r3, r4, lsl #2]
     f7c:	e0255864 	eor	r5, r5, r4, ror #16
     f80:	e1a04c28 	lsr	r4, r8, #24
     f84:	e59c9014 	ldr	r9, [ip, #20]
     f88:	e7934104 	ldr	r4, [r3, r4, lsl #2]
     f8c:	e0294004 	eor	r4, r9, r4
     f90:	e20a90ff 	and	r9, sl, #255	; 0xff
     f94:	e7939109 	ldr	r9, [r3, r9, lsl #2]
     f98:	e0244c69 	eor	r4, r4, r9, ror #24
     f9c:	e1a09827 	lsr	r9, r7, #16
     fa0:	e20990ff 	and	r9, r9, #255	; 0xff
     fa4:	e7939109 	ldr	r9, [r3, r9, lsl #2]
     fa8:	e0244469 	eor	r4, r4, r9, ror #8
     fac:	e1a09426 	lsr	r9, r6, #8
     fb0:	e20990ff 	and	r9, r9, #255	; 0xff
     fb4:	e7939109 	ldr	r9, [r3, r9, lsl #2]
     fb8:	e0244869 	eor	r4, r4, r9, ror #16
     fbc:	e1a09c27 	lsr	r9, r7, #24
     fc0:	e793b109 	ldr	fp, [r3, r9, lsl #2]
     fc4:	e59c9018 	ldr	r9, [ip, #24]
     fc8:	e029b00b 	eor	fp, r9, fp
     fcc:	e20890ff 	and	r9, r8, #255	; 0xff
     fd0:	e7939109 	ldr	r9, [r3, r9, lsl #2]
     fd4:	e02bbc69 	eor	fp, fp, r9, ror #24
     fd8:	e1a09826 	lsr	r9, r6, #16
     fdc:	e20990ff 	and	r9, r9, #255	; 0xff
     fe0:	e7939109 	ldr	r9, [r3, r9, lsl #2]
     fe4:	e02bb469 	eor	fp, fp, r9, ror #8
     fe8:	e1a0942a 	lsr	r9, sl, #8
     fec:	e20990ff 	and	r9, r9, #255	; 0xff
     ff0:	e7939109 	ldr	r9, [r3, r9, lsl #2]
     ff4:	e1a06c26 	lsr	r6, r6, #24
     ff8:	e02b9869 	eor	r9, fp, r9, ror #16
     ffc:	e7936106 	ldr	r6, [r3, r6, lsl #2]
    1000:	e59cb01c 	ldr	fp, [ip, #28]
    1004:	e20770ff 	and	r7, r7, #255	; 0xff
    1008:	e02b6006 	eor	r6, fp, r6
    100c:	e1a0a82a 	lsr	sl, sl, #16
    1010:	e793b107 	ldr	fp, [r3, r7, lsl #2]
    1014:	e20aa0ff 	and	sl, sl, #255	; 0xff
    1018:	e0266c6b 	eor	r6, r6, fp, ror #24
    101c:	e793b10a 	ldr	fp, [r3, sl, lsl #2]
    1020:	e1a08428 	lsr	r8, r8, #8
    1024:	e026646b 	eor	r6, r6, fp, ror #8
    1028:	e20880ff 	and	r8, r8, #255	; 0xff
    102c:	e59db004 	ldr	fp, [sp, #4]
    1030:	e7937108 	ldr	r7, [r3, r8, lsl #2]
    1034:	e15c000b 	cmp	ip, fp
    1038:	e0266867 	eor	r6, r6, r7, ror #16
    103c:	e59f12a8 	ldr	r1, [pc, #680]	; 12ec <rijndaelEncrypt+0x44c>
    1040:	e1a07c25 	lsr	r7, r5, #24
    1044:	0a00003c 	beq	113c <rijndaelEncrypt+0x29c>
    1048:	e59c1020 	ldr	r1, [ip, #32]
    104c:	e793a107 	ldr	sl, [r3, r7, lsl #2]
    1050:	e02aa001 	eor	sl, sl, r1
    1054:	e20610ff 	and	r1, r6, #255	; 0xff
    1058:	e7931101 	ldr	r1, [r3, r1, lsl #2]
    105c:	e02aac61 	eor	sl, sl, r1, ror #24
    1060:	e1a01824 	lsr	r1, r4, #16
    1064:	e20110ff 	and	r1, r1, #255	; 0xff
    1068:	e7931101 	ldr	r1, [r3, r1, lsl #2]
    106c:	e02aa461 	eor	sl, sl, r1, ror #8
    1070:	e1a01429 	lsr	r1, r9, #8
    1074:	e20110ff 	and	r1, r1, #255	; 0xff
    1078:	e7931101 	ldr	r1, [r3, r1, lsl #2]
    107c:	e02aa861 	eor	sl, sl, r1, ror #16
    1080:	e1a01c24 	lsr	r1, r4, #24
    1084:	e7938101 	ldr	r8, [r3, r1, lsl #2]
    1088:	e59c1024 	ldr	r1, [ip, #36]	; 0x24
    108c:	e0288001 	eor	r8, r8, r1
    1090:	e20510ff 	and	r1, r5, #255	; 0xff
    1094:	e7931101 	ldr	r1, [r3, r1, lsl #2]
    1098:	e0288c61 	eor	r8, r8, r1, ror #24
    109c:	e1a01829 	lsr	r1, r9, #16
    10a0:	e20110ff 	and	r1, r1, #255	; 0xff
    10a4:	e7931101 	ldr	r1, [r3, r1, lsl #2]
    10a8:	e0288461 	eor	r8, r8, r1, ror #8
    10ac:	e1a01426 	lsr	r1, r6, #8
    10b0:	e20110ff 	and	r1, r1, #255	; 0xff
    10b4:	e7931101 	ldr	r1, [r3, r1, lsl #2]
    10b8:	e0288861 	eor	r8, r8, r1, ror #16
    10bc:	e1a01c29 	lsr	r1, r9, #24
    10c0:	e7937101 	ldr	r7, [r3, r1, lsl #2]
    10c4:	e59c1028 	ldr	r1, [ip, #40]	; 0x28
    10c8:	e0277001 	eor	r7, r7, r1
    10cc:	e20410ff 	and	r1, r4, #255	; 0xff
    10d0:	e7931101 	ldr	r1, [r3, r1, lsl #2]
    10d4:	e0277c61 	eor	r7, r7, r1, ror #24
    10d8:	e1a01826 	lsr	r1, r6, #16
    10dc:	e20110ff 	and	r1, r1, #255	; 0xff
    10e0:	e7931101 	ldr	r1, [r3, r1, lsl #2]
    10e4:	e0277461 	eor	r7, r7, r1, ror #8
    10e8:	e1a01425 	lsr	r1, r5, #8
    10ec:	e20110ff 	and	r1, r1, #255	; 0xff
    10f0:	e7931101 	ldr	r1, [r3, r1, lsl #2]
    10f4:	e1a06c26 	lsr	r6, r6, #24
    10f8:	e7936106 	ldr	r6, [r3, r6, lsl #2]
    10fc:	e0277861 	eor	r7, r7, r1, ror #16
    1100:	e59c102c 	ldr	r1, [ip, #44]	; 0x2c
    1104:	e20990ff 	and	r9, r9, #255	; 0xff
    1108:	e0261001 	eor	r1, r6, r1
    110c:	e1a05825 	lsr	r5, r5, #16
    1110:	e7936109 	ldr	r6, [r3, r9, lsl #2]
    1114:	e20550ff 	and	r5, r5, #255	; 0xff
    1118:	e0216c66 	eor	r6, r1, r6, ror #24
    111c:	e1a04424 	lsr	r4, r4, #8
    1120:	e7931105 	ldr	r1, [r3, r5, lsl #2]
    1124:	e20440ff 	and	r4, r4, #255	; 0xff
    1128:	e0266461 	eor	r6, r6, r1, ror #8
    112c:	e7931104 	ldr	r1, [r3, r4, lsl #2]
    1130:	e28cc020 	add	ip, ip, #32
    1134:	e0266861 	eor	r6, r6, r1, ror #16
    1138:	eaffff81 	b	f44 <rijndaelEncrypt+0xa4>
    113c:	e1a03824 	lsr	r3, r4, #16
    1140:	e791c107 	ldr	ip, [r1, r7, lsl #2]
    1144:	e20330ff 	and	r3, r3, #255	; 0xff
    1148:	e7913103 	ldr	r3, [r1, r3, lsl #2]
    114c:	e1a0c40c 	lsl	ip, ip, #8
    1150:	e20cc4ff 	and	ip, ip, #-16777216	; 0xff000000
    1154:	e20338ff 	and	r3, r3, #16711680	; 0xff0000
    1158:	e02c3003 	eor	r3, ip, r3
    115c:	e590c0a0 	ldr	ip, [r0, #160]	; 0xa0
    1160:	e023300c 	eor	r3, r3, ip
    1164:	e1a0c429 	lsr	ip, r9, #8
    1168:	e20cc0ff 	and	ip, ip, #255	; 0xff
    116c:	e791c10c 	ldr	ip, [r1, ip, lsl #2]
    1170:	e20cccff 	and	ip, ip, #65280	; 0xff00
    1174:	e023300c 	eor	r3, r3, ip
    1178:	e206c0ff 	and	ip, r6, #255	; 0xff
    117c:	e081c10c 	add	ip, r1, ip, lsl #2
    1180:	e5dcc001 	ldrb	ip, [ip, #1]
    1184:	e023300c 	eor	r3, r3, ip
    1188:	e1a0cc23 	lsr	ip, r3, #24
    118c:	e5c2c000 	strb	ip, [r2]
    1190:	e1a0c823 	lsr	ip, r3, #16
    1194:	e5c2c001 	strb	ip, [r2, #1]
    1198:	e5c23003 	strb	r3, [r2, #3]
    119c:	e1a0c423 	lsr	ip, r3, #8
    11a0:	e1a03c24 	lsr	r3, r4, #24
    11a4:	e5c2c002 	strb	ip, [r2, #2]
    11a8:	e791c103 	ldr	ip, [r1, r3, lsl #2]
    11ac:	e1a03829 	lsr	r3, r9, #16
    11b0:	e20330ff 	and	r3, r3, #255	; 0xff
    11b4:	e7913103 	ldr	r3, [r1, r3, lsl #2]
    11b8:	e1a0c40c 	lsl	ip, ip, #8
    11bc:	e20cc4ff 	and	ip, ip, #-16777216	; 0xff000000
    11c0:	e20338ff 	and	r3, r3, #16711680	; 0xff0000
    11c4:	e02c3003 	eor	r3, ip, r3
    11c8:	e590c0a4 	ldr	ip, [r0, #164]	; 0xa4
    11cc:	e023300c 	eor	r3, r3, ip
    11d0:	e1a0c426 	lsr	ip, r6, #8
    11d4:	e20cc0ff 	and	ip, ip, #255	; 0xff
    11d8:	e791c10c 	ldr	ip, [r1, ip, lsl #2]
    11dc:	e20cccff 	and	ip, ip, #65280	; 0xff00
    11e0:	e023300c 	eor	r3, r3, ip
    11e4:	e205c0ff 	and	ip, r5, #255	; 0xff
    11e8:	e081c10c 	add	ip, r1, ip, lsl #2
    11ec:	e5dcc001 	ldrb	ip, [ip, #1]
    11f0:	e023300c 	eor	r3, r3, ip
    11f4:	e1a0cc23 	lsr	ip, r3, #24
    11f8:	e5c2c004 	strb	ip, [r2, #4]
    11fc:	e1a0c823 	lsr	ip, r3, #16
    1200:	e5c2c005 	strb	ip, [r2, #5]
    1204:	e5c23007 	strb	r3, [r2, #7]
    1208:	e1a0c423 	lsr	ip, r3, #8
    120c:	e1a03c29 	lsr	r3, r9, #24
    1210:	e5c2c006 	strb	ip, [r2, #6]
    1214:	e791c103 	ldr	ip, [r1, r3, lsl #2]
    1218:	e1a03826 	lsr	r3, r6, #16
    121c:	e20330ff 	and	r3, r3, #255	; 0xff
    1220:	e7913103 	ldr	r3, [r1, r3, lsl #2]
    1224:	e1a0c40c 	lsl	ip, ip, #8
    1228:	e20cc4ff 	and	ip, ip, #-16777216	; 0xff000000
    122c:	e20338ff 	and	r3, r3, #16711680	; 0xff0000
    1230:	e02c3003 	eor	r3, ip, r3
    1234:	e590c0a8 	ldr	ip, [r0, #168]	; 0xa8
    1238:	e023300c 	eor	r3, r3, ip
    123c:	e1a0c425 	lsr	ip, r5, #8
    1240:	e20cc0ff 	and	ip, ip, #255	; 0xff
    1244:	e791c10c 	ldr	ip, [r1, ip, lsl #2]
    1248:	e20cccff 	and	ip, ip, #65280	; 0xff00
    124c:	e023300c 	eor	r3, r3, ip
    1250:	e204c0ff 	and	ip, r4, #255	; 0xff
    1254:	e081c10c 	add	ip, r1, ip, lsl #2
    1258:	e5dcc001 	ldrb	ip, [ip, #1]
    125c:	e023300c 	eor	r3, r3, ip
    1260:	e1a0cc23 	lsr	ip, r3, #24
    1264:	e5c2c008 	strb	ip, [r2, #8]
    1268:	e1a0c823 	lsr	ip, r3, #16
    126c:	e5c2c009 	strb	ip, [r2, #9]
    1270:	e1a06c26 	lsr	r6, r6, #24
    1274:	e1a0c423 	lsr	ip, r3, #8
    1278:	e1a05825 	lsr	r5, r5, #16
    127c:	e5c2c00a 	strb	ip, [r2, #10]
    1280:	e20550ff 	and	r5, r5, #255	; 0xff
    1284:	e791c106 	ldr	ip, [r1, r6, lsl #2]
    1288:	e5c2300b 	strb	r3, [r2, #11]
    128c:	e7913105 	ldr	r3, [r1, r5, lsl #2]
    1290:	e1a0c40c 	lsl	ip, ip, #8
    1294:	e59000ac 	ldr	r0, [r0, #172]	; 0xac
    1298:	e20cc4ff 	and	ip, ip, #-16777216	; 0xff000000
    129c:	e20338ff 	and	r3, r3, #16711680	; 0xff0000
    12a0:	e1a04424 	lsr	r4, r4, #8
    12a4:	e02c3003 	eor	r3, ip, r3
    12a8:	e20440ff 	and	r4, r4, #255	; 0xff
    12ac:	e0233000 	eor	r3, r3, r0
    12b0:	e20990ff 	and	r9, r9, #255	; 0xff
    12b4:	e7910104 	ldr	r0, [r1, r4, lsl #2]
    12b8:	e0811109 	add	r1, r1, r9, lsl #2
    12bc:	e5d11001 	ldrb	r1, [r1, #1]
    12c0:	e2000cff 	and	r0, r0, #65280	; 0xff00
    12c4:	e0233000 	eor	r3, r3, r0
    12c8:	e0233001 	eor	r3, r3, r1
    12cc:	e1a01c23 	lsr	r1, r3, #24
    12d0:	e5c2100c 	strb	r1, [r2, #12]
    12d4:	e1a01823 	lsr	r1, r3, #16
    12d8:	e5c2100d 	strb	r1, [r2, #13]
    12dc:	e1a01423 	lsr	r1, r3, #8
    12e0:	e5c2100e 	strb	r1, [r2, #14]
    12e4:	e5c2300f 	strb	r3, [r2, #15]
    12e8:	e8bd8ffe 	pop	{r1, r2, r3, r4, r5, r6, r7, r8, r9, sl, fp, pc}
    12ec:	00023bac 	andeq	r3, r2, ip, lsr #23

000012f0 <aes_encrypt_init>:
    12f0:	e3510010 	cmp	r1, #16
    12f4:	e92d4038 	push	{r3, r4, r5, lr}
    12f8:	e1a05000 	mov	r5, r0
    12fc:	13a04000 	movne	r4, #0
    1300:	1a000004 	bne	1318 <aes_encrypt_init+0x28>
    1304:	e3a000b0 	mov	r0, #176	; 0xb0
    1308:	eb0010b8 	bl	55f0 <os_malloc>
    130c:	e2504000 	subs	r4, r0, #0
    1310:	11a01005 	movne	r1, r5
    1314:	1bfffd44 	blne	82c <rijndaelKeySetupEnc>
    1318:	e1a00004 	mov	r0, r4
    131c:	e8bd8038 	pop	{r3, r4, r5, pc}

00001320 <aes_encrypt>:
    1320:	eafffede 	b	ea0 <rijndaelEncrypt>

00001324 <aes_encrypt_deinit>:
    1324:	e92d4010 	push	{r4, lr}
    1328:	e3a01000 	mov	r1, #0
    132c:	e3a020b0 	mov	r2, #176	; 0xb0
    1330:	e1a04000 	mov	r4, r0
    1334:	eb00735e 	bl	1e0b4 <memset>
    1338:	e1a00004 	mov	r0, r4
    133c:	e8bd4010 	pop	{r4, lr}
    1340:	ea0010af 	b	5604 <os_free>

00001344 <aes_unwrap>:
    1344:	e92d4ff0 	push	{r4, r5, r6, r7, r8, r9, sl, fp, lr}
    1348:	e24dd024 	sub	sp, sp, #36	; 0x24
    134c:	e1a07003 	mov	r7, r3
    1350:	e1a06000 	mov	r6, r0
    1354:	e1a04001 	mov	r4, r1
    1358:	e1a05002 	mov	r5, r2
    135c:	e1a01002 	mov	r1, r2
    1360:	e28d0018 	add	r0, sp, #24
    1364:	e3a02008 	mov	r2, #8
    1368:	eb00738a 	bl	1e198 <memcpy>
    136c:	e2851008 	add	r1, r5, #8
    1370:	e1a02184 	lsl	r2, r4, #3
    1374:	e1a00007 	mov	r0, r7
    1378:	eb007386 	bl	1e198 <memcpy>
    137c:	e1a00006 	mov	r0, r6
    1380:	e3a01010 	mov	r1, #16
    1384:	ebfffdb5 	bl	a60 <aes_decrypt_init>
    1388:	e250b000 	subs	fp, r0, #0
    138c:	0a000036 	beq	146c <aes_unwrap+0x128>
    1390:	e2443001 	sub	r3, r4, #1
    1394:	e20480ff 	and	r8, r4, #255	; 0xff
    1398:	e0873183 	add	r3, r7, r3, lsl #3
    139c:	e0887108 	add	r7, r8, r8, lsl #2
    13a0:	e20770ff 	and	r7, r7, #255	; 0xff
    13a4:	e3a09006 	mov	r9, #6
    13a8:	e28da010 	add	sl, sp, #16
    13ac:	e1a06004 	mov	r6, r4
    13b0:	e1a05003 	mov	r5, r3
    13b4:	ea00001b 	b	1428 <aes_unwrap+0xe4>
    13b8:	e28d1018 	add	r1, sp, #24
    13bc:	e3a02008 	mov	r2, #8
    13c0:	e28d0008 	add	r0, sp, #8
    13c4:	e58d3004 	str	r3, [sp, #4]
    13c8:	eb007372 	bl	1e198 <memcpy>
    13cc:	e5dd200f 	ldrb	r2, [sp, #15]
    13d0:	e0871006 	add	r1, r7, r6
    13d4:	e0212002 	eor	r2, r1, r2
    13d8:	e5cd200f 	strb	r2, [sp, #15]
    13dc:	e1a01005 	mov	r1, r5
    13e0:	e3a02008 	mov	r2, #8
    13e4:	e1a0000a 	mov	r0, sl
    13e8:	eb00736a 	bl	1e198 <memcpy>
    13ec:	e28d1008 	add	r1, sp, #8
    13f0:	e1a02001 	mov	r2, r1
    13f4:	e1a0000b 	mov	r0, fp
    13f8:	ebfffda4 	bl	a90 <aes_decrypt>
    13fc:	e28d1008 	add	r1, sp, #8
    1400:	e3a02008 	mov	r2, #8
    1404:	e28d0018 	add	r0, sp, #24
    1408:	eb007362 	bl	1e198 <memcpy>
    140c:	e1a00005 	mov	r0, r5
    1410:	e1a0100a 	mov	r1, sl
    1414:	e3a02008 	mov	r2, #8
    1418:	eb00735e 	bl	1e198 <memcpy>
    141c:	e59d3004 	ldr	r3, [sp, #4]
    1420:	e2455008 	sub	r5, r5, #8
    1424:	e2466001 	sub	r6, r6, #1
    1428:	e3560000 	cmp	r6, #0
    142c:	caffffe1 	bgt	13b8 <aes_unwrap+0x74>
    1430:	e0687007 	rsb	r7, r8, r7
    1434:	e2599001 	subs	r9, r9, #1
    1438:	e20770ff 	and	r7, r7, #255	; 0xff
    143c:	1affffda 	bne	13ac <aes_unwrap+0x68>
    1440:	e1a0000b 	mov	r0, fp
    1444:	ebfffe8d 	bl	e80 <aes_decrypt_deinit>
    1448:	e28d3018 	add	r3, sp, #24
    144c:	e7d93003 	ldrb	r3, [r9, r3]
    1450:	e35300a6 	cmp	r3, #166	; 0xa6
    1454:	1a000004 	bne	146c <aes_unwrap+0x128>
    1458:	e2899001 	add	r9, r9, #1
    145c:	e3590008 	cmp	r9, #8
    1460:	1afffff8 	bne	1448 <aes_unwrap+0x104>
    1464:	e3a00000 	mov	r0, #0
    1468:	ea000000 	b	1470 <aes_unwrap+0x12c>
    146c:	e3e00000 	mvn	r0, #0
    1470:	e28dd024 	add	sp, sp, #36	; 0x24
    1474:	e8bd8ff0 	pop	{r4, r5, r6, r7, r8, r9, sl, fp, pc}

00001478 <hmac_md5_vector>:
    1478:	e92d41f0 	push	{r4, r5, r6, r7, r8, lr}
    147c:	e3520005 	cmp	r2, #5
    1480:	e24dd088 	sub	sp, sp, #136	; 0x88
    1484:	e58d0004 	str	r0, [sp, #4]
    1488:	e58d1000 	str	r1, [sp]
    148c:	e1a05002 	mov	r5, r2
    1490:	e1a07003 	mov	r7, r3
    1494:	e59d80a0 	ldr	r8, [sp, #160]	; 0xa0
    1498:	e59d40a4 	ldr	r4, [sp, #164]	; 0xa4
    149c:	8a00004b 	bhi	15d0 <hmac_md5_vector+0x158>
    14a0:	e3510040 	cmp	r1, #64	; 0x40
    14a4:	9a00000a 	bls	14d4 <hmac_md5_vector+0x5c>
    14a8:	e28d6078 	add	r6, sp, #120	; 0x78
    14ac:	e3a00001 	mov	r0, #1
    14b0:	e28d1004 	add	r1, sp, #4
    14b4:	e1a0200d 	mov	r2, sp
    14b8:	e1a03006 	mov	r3, r6
    14bc:	eb00033c 	bl	21b4 <md5_vector>
    14c0:	e3500000 	cmp	r0, #0
    14c4:	1a000041 	bne	15d0 <hmac_md5_vector+0x158>
    14c8:	e3a03010 	mov	r3, #16
    14cc:	e58d6004 	str	r6, [sp, #4]
    14d0:	e58d3000 	str	r3, [sp]
    14d4:	e28d6008 	add	r6, sp, #8
    14d8:	e3a01000 	mov	r1, #0
    14dc:	e3a02040 	mov	r2, #64	; 0x40
    14e0:	e1a00006 	mov	r0, r6
    14e4:	eb0072f2 	bl	1e0b4 <memset>
    14e8:	e1a00006 	mov	r0, r6
    14ec:	e59d1004 	ldr	r1, [sp, #4]
    14f0:	e59d2000 	ldr	r2, [sp]
    14f4:	eb007327 	bl	1e198 <memcpy>
    14f8:	e3a03000 	mov	r3, #0
    14fc:	e7d62003 	ldrb	r2, [r6, r3]
    1500:	e2222036 	eor	r2, r2, #54	; 0x36
    1504:	e7c62003 	strb	r2, [r6, r3]
    1508:	e2833001 	add	r3, r3, #1
    150c:	e3530040 	cmp	r3, #64	; 0x40
    1510:	1afffff9 	bne	14fc <hmac_md5_vector+0x84>
    1514:	e58d3060 	str	r3, [sp, #96]	; 0x60
    1518:	e3a03000 	mov	r3, #0
    151c:	e58d6048 	str	r6, [sp, #72]	; 0x48
    1520:	e1a0c105 	lsl	ip, r5, #2
    1524:	e1a00003 	mov	r0, r3
    1528:	ea000004 	b	1540 <hmac_md5_vector+0xc8>
    152c:	e797e003 	ldr	lr, [r7, r3]
    1530:	e781e000 	str	lr, [r1, r0]
    1534:	e7981003 	ldr	r1, [r8, r3]
    1538:	e7821000 	str	r1, [r2, r0]
    153c:	e2833004 	add	r3, r3, #4
    1540:	e153000c 	cmp	r3, ip
    1544:	e2800004 	add	r0, r0, #4
    1548:	e28d1048 	add	r1, sp, #72	; 0x48
    154c:	e28d2060 	add	r2, sp, #96	; 0x60
    1550:	1afffff5 	bne	152c <hmac_md5_vector+0xb4>
    1554:	e2850001 	add	r0, r5, #1
    1558:	e1a03004 	mov	r3, r4
    155c:	eb000314 	bl	21b4 <md5_vector>
    1560:	e2506000 	subs	r6, r0, #0
    1564:	1a000019 	bne	15d0 <hmac_md5_vector+0x158>
    1568:	e28d5008 	add	r5, sp, #8
    156c:	e1a01006 	mov	r1, r6
    1570:	e3a02040 	mov	r2, #64	; 0x40
    1574:	e1a00005 	mov	r0, r5
    1578:	eb0072cd 	bl	1e0b4 <memset>
    157c:	e1a00005 	mov	r0, r5
    1580:	e59d1004 	ldr	r1, [sp, #4]
    1584:	e59d2000 	ldr	r2, [sp]
    1588:	eb007302 	bl	1e198 <memcpy>
    158c:	e7d53006 	ldrb	r3, [r5, r6]
    1590:	e223305c 	eor	r3, r3, #92	; 0x5c
    1594:	e7c53006 	strb	r3, [r5, r6]
    1598:	e2866001 	add	r6, r6, #1
    159c:	e3560040 	cmp	r6, #64	; 0x40
    15a0:	1afffff9 	bne	158c <hmac_md5_vector+0x114>
    15a4:	e3a03010 	mov	r3, #16
    15a8:	e58d3064 	str	r3, [sp, #100]	; 0x64
    15ac:	e28d1048 	add	r1, sp, #72	; 0x48
    15b0:	e28d2060 	add	r2, sp, #96	; 0x60
    15b4:	e1a03004 	mov	r3, r4
    15b8:	e3a00002 	mov	r0, #2
    15bc:	e58d5048 	str	r5, [sp, #72]	; 0x48
    15c0:	e58d6060 	str	r6, [sp, #96]	; 0x60
    15c4:	e58d404c 	str	r4, [sp, #76]	; 0x4c
    15c8:	eb0002f9 	bl	21b4 <md5_vector>
    15cc:	ea000000 	b	15d4 <hmac_md5_vector+0x15c>
    15d0:	e3e00000 	mvn	r0, #0
    15d4:	e28dd088 	add	sp, sp, #136	; 0x88
    15d8:	e8bd81f0 	pop	{r4, r5, r6, r7, r8, pc}

000015dc <hmac_md5>:
    15dc:	e92d401f 	push	{r0, r1, r2, r3, r4, lr}
    15e0:	e58d3008 	str	r3, [sp, #8]
    15e4:	e28d3008 	add	r3, sp, #8
    15e8:	e58d3000 	str	r3, [sp]
    15ec:	e59d3018 	ldr	r3, [sp, #24]
    15f0:	e58d200c 	str	r2, [sp, #12]
    15f4:	e58d3004 	str	r3, [sp, #4]
    15f8:	e3a02001 	mov	r2, #1
    15fc:	e28d300c 	add	r3, sp, #12
    1600:	ebffff9c 	bl	1478 <hmac_md5_vector>
    1604:	e28dd014 	add	sp, sp, #20
    1608:	e8bd8000 	pop	{pc}

0000160c <MD5Transform>:
    160c:	e92d4ff0 	push	{r4, r5, r6, r7, r8, r9, sl, fp, lr}
    1610:	e5906008 	ldr	r6, [r0, #8]
    1614:	e590500c 	ldr	r5, [r0, #12]
    1618:	e5903004 	ldr	r3, [r0, #4]
    161c:	e5904000 	ldr	r4, [r0]
    1620:	e59f28f0 	ldr	r2, [pc, #2288]	; 1f18 <MD5Transform+0x90c>
    1624:	e5918000 	ldr	r8, [r1]
    1628:	e025c006 	eor	ip, r5, r6
    162c:	e0842002 	add	r2, r4, r2
    1630:	e00cc003 	and	ip, ip, r3
    1634:	e02cc005 	eor	ip, ip, r5
    1638:	e0822008 	add	r2, r2, r8
    163c:	e082200c 	add	r2, r2, ip
    1640:	e59fc8d4 	ldr	ip, [pc, #2260]	; 1f1c <MD5Transform+0x910>
    1644:	e0832ce2 	add	r2, r3, r2, ror #25
    1648:	e5917004 	ldr	r7, [r1, #4]
    164c:	e0264003 	eor	r4, r6, r3
    1650:	e085c00c 	add	ip, r5, ip
    1654:	e0024004 	and	r4, r2, r4
    1658:	e0244006 	eor	r4, r4, r6
    165c:	e08cc007 	add	ip, ip, r7
    1660:	e08cc004 	add	ip, ip, r4
    1664:	e59f58b4 	ldr	r5, [pc, #2228]	; 1f20 <MD5Transform+0x914>
    1668:	e082ca6c 	add	ip, r2, ip, ror #20
    166c:	e5919008 	ldr	r9, [r1, #8]
    1670:	e0224003 	eor	r4, r2, r3
    1674:	e0865005 	add	r5, r6, r5
    1678:	e00c4004 	and	r4, ip, r4
    167c:	e0855009 	add	r5, r5, r9
    1680:	e0244003 	eor	r4, r4, r3
    1684:	e0854004 	add	r4, r5, r4
    1688:	e59f6894 	ldr	r6, [pc, #2196]	; 1f24 <MD5Transform+0x918>
    168c:	e08c47e4 	add	r4, ip, r4, ror #15
    1690:	e591a00c 	ldr	sl, [r1, #12]
    1694:	e02c5002 	eor	r5, ip, r2
    1698:	e0836006 	add	r6, r3, r6
    169c:	e0045005 	and	r5, r4, r5
    16a0:	e0255002 	eor	r5, r5, r2
    16a4:	e086600a 	add	r6, r6, sl
    16a8:	e24dd034 	sub	sp, sp, #52	; 0x34
    16ac:	e591b010 	ldr	fp, [r1, #16]
    16b0:	e0866005 	add	r6, r6, r5
    16b4:	e59f586c 	ldr	r5, [pc, #2156]	; 1f28 <MD5Transform+0x91c>
    16b8:	e0846566 	add	r6, r4, r6, ror #10
    16bc:	e58d7004 	str	r7, [sp, #4]
    16c0:	e024700c 	eor	r7, r4, ip
    16c4:	e08b5005 	add	r5, fp, r5
    16c8:	e0067007 	and	r7, r6, r7
    16cc:	e027700c 	eor	r7, r7, ip
    16d0:	e0852002 	add	r2, r5, r2
    16d4:	e0822007 	add	r2, r2, r7
    16d8:	e5915014 	ldr	r5, [r1, #20]
    16dc:	e59f7848 	ldr	r7, [pc, #2120]	; 1f2c <MD5Transform+0x920>
    16e0:	e0857007 	add	r7, r5, r7
    16e4:	e0862ce2 	add	r2, r6, r2, ror #25
    16e8:	e58da00c 	str	sl, [sp, #12]
    16ec:	e087c00c 	add	ip, r7, ip
    16f0:	e026a004 	eor	sl, r6, r4
    16f4:	e5917018 	ldr	r7, [r1, #24]
    16f8:	e002a00a 	and	sl, r2, sl
    16fc:	e58d7014 	str	r7, [sp, #20]
    1700:	e02aa004 	eor	sl, sl, r4
    1704:	e58d9008 	str	r9, [sp, #8]
    1708:	e08cc00a 	add	ip, ip, sl
    170c:	e59d9014 	ldr	r9, [sp, #20]
    1710:	e59f7818 	ldr	r7, [pc, #2072]	; 1f30 <MD5Transform+0x924>
    1714:	e082ca6c 	add	ip, r2, ip, ror #20
    1718:	e022a006 	eor	sl, r2, r6
    171c:	e0897007 	add	r7, r9, r7
    1720:	e00ca00a 	and	sl, ip, sl
    1724:	e02aa006 	eor	sl, sl, r6
    1728:	e0874004 	add	r4, r7, r4
    172c:	e084400a 	add	r4, r4, sl
    1730:	e591701c 	ldr	r7, [r1, #28]
    1734:	e59fa7f8 	ldr	sl, [pc, #2040]	; 1f34 <MD5Transform+0x928>
    1738:	e087a00a 	add	sl, r7, sl
    173c:	e08c47e4 	add	r4, ip, r4, ror #15
    1740:	e02c9002 	eor	r9, ip, r2
    1744:	e08a6006 	add	r6, sl, r6
    1748:	e591a020 	ldr	sl, [r1, #32]
    174c:	e0049009 	and	r9, r4, r9
    1750:	e58da018 	str	sl, [sp, #24]
    1754:	e0299002 	eor	r9, r9, r2
    1758:	e58db010 	str	fp, [sp, #16]
    175c:	e0866009 	add	r6, r6, r9
    1760:	e59db018 	ldr	fp, [sp, #24]
    1764:	e59fa7cc 	ldr	sl, [pc, #1996]	; 1f38 <MD5Transform+0x92c>
    1768:	e0846566 	add	r6, r4, r6, ror #10
    176c:	e024900c 	eor	r9, r4, ip
    1770:	e08ba00a 	add	sl, fp, sl
    1774:	e0069009 	and	r9, r6, r9
    1778:	e029900c 	eor	r9, r9, ip
    177c:	e08a2002 	add	r2, sl, r2
    1780:	e0822009 	add	r2, r2, r9
    1784:	e59fa7b0 	ldr	sl, [pc, #1968]	; 1f3c <MD5Transform+0x930>
    1788:	e5919024 	ldr	r9, [r1, #36]	; 0x24
    178c:	e0862ce2 	add	r2, r6, r2, ror #25
    1790:	e58d901c 	str	r9, [sp, #28]
    1794:	e089a00a 	add	sl, r9, sl
    1798:	e0269004 	eor	r9, r6, r4
    179c:	e0029009 	and	r9, r2, r9
    17a0:	e0299004 	eor	r9, r9, r4
    17a4:	e08ac00c 	add	ip, sl, ip
    17a8:	e591a028 	ldr	sl, [r1, #40]	; 0x28
    17ac:	e08cc009 	add	ip, ip, r9
    17b0:	e082ca6c 	add	ip, r2, ip, ror #20
    17b4:	e58da020 	str	sl, [sp, #32]
    17b8:	e0229006 	eor	r9, r2, r6
    17bc:	e24aab29 	sub	sl, sl, #41984	; 0xa400
    17c0:	e24aa04f 	sub	sl, sl, #79	; 0x4f
    17c4:	e00c9009 	and	r9, ip, r9
    17c8:	e0299006 	eor	r9, r9, r6
    17cc:	e08a4004 	add	r4, sl, r4
    17d0:	e591b02c 	ldr	fp, [r1, #44]	; 0x2c
    17d4:	e0844009 	add	r4, r4, r9
    17d8:	e59f9760 	ldr	r9, [pc, #1888]	; 1f40 <MD5Transform+0x934>
    17dc:	e08b9009 	add	r9, fp, r9
    17e0:	e08c47e4 	add	r4, ip, r4, ror #15
    17e4:	e02ca002 	eor	sl, ip, r2
    17e8:	e0899006 	add	r9, r9, r6
    17ec:	e5916030 	ldr	r6, [r1, #48]	; 0x30
    17f0:	e004a00a 	and	sl, r4, sl
    17f4:	e02aa002 	eor	sl, sl, r2
    17f8:	e58d6028 	str	r6, [sp, #40]	; 0x28
    17fc:	e089900a 	add	r9, r9, sl
    1800:	e59f673c 	ldr	r6, [pc, #1852]	; 1f44 <MD5Transform+0x938>
    1804:	e59da028 	ldr	sl, [sp, #40]	; 0x28
    1808:	e0849569 	add	r9, r4, r9, ror #10
    180c:	e08a6006 	add	r6, sl, r6
    1810:	e024a00c 	eor	sl, r4, ip
    1814:	e009a00a 	and	sl, r9, sl
    1818:	e02aa00c 	eor	sl, sl, ip
    181c:	e0862002 	add	r2, r6, r2
    1820:	e58db024 	str	fp, [sp, #36]	; 0x24
    1824:	e082200a 	add	r2, r2, sl
    1828:	e591b034 	ldr	fp, [r1, #52]	; 0x34
    182c:	e59f6714 	ldr	r6, [pc, #1812]	; 1f48 <MD5Transform+0x93c>
    1830:	e0892ce2 	add	r2, r9, r2, ror #25
    1834:	e029a004 	eor	sl, r9, r4
    1838:	e08b6006 	add	r6, fp, r6
    183c:	e002a00a 	and	sl, r2, sl
    1840:	e02aa004 	eor	sl, sl, r4
    1844:	e086c00c 	add	ip, r6, ip
    1848:	e08cc00a 	add	ip, ip, sl
    184c:	e5916038 	ldr	r6, [r1, #56]	; 0x38
    1850:	e59fa6f4 	ldr	sl, [pc, #1780]	; 1f4c <MD5Transform+0x940>
    1854:	e082ca6c 	add	ip, r2, ip, ror #20
    1858:	e58db02c 	str	fp, [sp, #44]	; 0x2c
    185c:	e022b009 	eor	fp, r2, r9
    1860:	e086a00a 	add	sl, r6, sl
    1864:	e00cb00b 	and	fp, ip, fp
    1868:	e02bb009 	eor	fp, fp, r9
    186c:	e08aa004 	add	sl, sl, r4
    1870:	e08aa00b 	add	sl, sl, fp
    1874:	e591403c 	ldr	r4, [r1, #60]	; 0x3c
    1878:	e59f16d0 	ldr	r1, [pc, #1744]	; 1f50 <MD5Transform+0x944>
    187c:	e08ca7ea 	add	sl, ip, sl, ror #15
    1880:	e02cb002 	eor	fp, ip, r2
    1884:	e0841001 	add	r1, r4, r1
    1888:	e00ab00b 	and	fp, sl, fp
    188c:	e02bb002 	eor	fp, fp, r2
    1890:	e0811009 	add	r1, r1, r9
    1894:	e081100b 	add	r1, r1, fp
    1898:	e59f96b4 	ldr	r9, [pc, #1716]	; 1f54 <MD5Transform+0x948>
    189c:	e59db004 	ldr	fp, [sp, #4]
    18a0:	e08a1561 	add	r1, sl, r1, ror #10
    18a4:	e08b9009 	add	r9, fp, r9
    18a8:	e021b00a 	eor	fp, r1, sl
    18ac:	e00bb00c 	and	fp, fp, ip
    18b0:	e02bb00a 	eor	fp, fp, sl
    18b4:	e0892002 	add	r2, r9, r2
    18b8:	e082200b 	add	r2, r2, fp
    18bc:	e59f9694 	ldr	r9, [pc, #1684]	; 1f58 <MD5Transform+0x94c>
    18c0:	e59db014 	ldr	fp, [sp, #20]
    18c4:	e0812de2 	add	r2, r1, r2, ror #27
    18c8:	e08b9009 	add	r9, fp, r9
    18cc:	e022b001 	eor	fp, r2, r1
    18d0:	e00bb00a 	and	fp, fp, sl
    18d4:	e02bb001 	eor	fp, fp, r1
    18d8:	e089c00c 	add	ip, r9, ip
    18dc:	e08cc00b 	add	ip, ip, fp
    18e0:	e59f9674 	ldr	r9, [pc, #1652]	; 1f5c <MD5Transform+0x950>
    18e4:	e59db024 	ldr	fp, [sp, #36]	; 0x24
    18e8:	e082cbec 	add	ip, r2, ip, ror #23
    18ec:	e08b9009 	add	r9, fp, r9
    18f0:	e02cb002 	eor	fp, ip, r2
    18f4:	e00bb001 	and	fp, fp, r1
    18f8:	e02bb002 	eor	fp, fp, r2
    18fc:	e089a00a 	add	sl, r9, sl
    1900:	e08aa00b 	add	sl, sl, fp
    1904:	e08ca96a 	add	sl, ip, sl, ror #18
    1908:	e59f9650 	ldr	r9, [pc, #1616]	; 1f60 <MD5Transform+0x954>
    190c:	e02ab00c 	eor	fp, sl, ip
    1910:	e0889009 	add	r9, r8, r9
    1914:	e00bb002 	and	fp, fp, r2
    1918:	e02bb00c 	eor	fp, fp, ip
    191c:	e0891001 	add	r1, r9, r1
    1920:	e081100b 	add	r1, r1, fp
    1924:	e08a1661 	add	r1, sl, r1, ror #12
    1928:	e59f9634 	ldr	r9, [pc, #1588]	; 1f64 <MD5Transform+0x958>
    192c:	e021b00a 	eor	fp, r1, sl
    1930:	e0859009 	add	r9, r5, r9
    1934:	e00bb00c 	and	fp, fp, ip
    1938:	e02bb00a 	eor	fp, fp, sl
    193c:	e0892002 	add	r2, r9, r2
    1940:	e082200b 	add	r2, r2, fp
    1944:	e59f961c 	ldr	r9, [pc, #1564]	; 1f68 <MD5Transform+0x95c>
    1948:	e59db020 	ldr	fp, [sp, #32]
    194c:	e0812de2 	add	r2, r1, r2, ror #27
    1950:	e08b9009 	add	r9, fp, r9
    1954:	e022b001 	eor	fp, r2, r1
    1958:	e00bb00a 	and	fp, fp, sl
    195c:	e02bb001 	eor	fp, fp, r1
    1960:	e089c00c 	add	ip, r9, ip
    1964:	e08cc00b 	add	ip, ip, fp
    1968:	e082cbec 	add	ip, r2, ip, ror #23
    196c:	e59f95f8 	ldr	r9, [pc, #1528]	; 1f6c <MD5Transform+0x960>
    1970:	e02cb002 	eor	fp, ip, r2
    1974:	e0849009 	add	r9, r4, r9
    1978:	e00bb001 	and	fp, fp, r1
    197c:	e02bb002 	eor	fp, fp, r2
    1980:	e089a00a 	add	sl, r9, sl
    1984:	e08aa00b 	add	sl, sl, fp
    1988:	e59f95e0 	ldr	r9, [pc, #1504]	; 1f70 <MD5Transform+0x964>
    198c:	e59db010 	ldr	fp, [sp, #16]
    1990:	e08ca96a 	add	sl, ip, sl, ror #18
    1994:	e08b9009 	add	r9, fp, r9
    1998:	e02ab00c 	eor	fp, sl, ip
    199c:	e00bb002 	and	fp, fp, r2
    19a0:	e02bb00c 	eor	fp, fp, ip
    19a4:	e0891001 	add	r1, r9, r1
    19a8:	e081100b 	add	r1, r1, fp
    19ac:	e59f95c0 	ldr	r9, [pc, #1472]	; 1f74 <MD5Transform+0x968>
    19b0:	e59db01c 	ldr	fp, [sp, #28]
    19b4:	e08a1661 	add	r1, sl, r1, ror #12
    19b8:	e08b9009 	add	r9, fp, r9
    19bc:	e021b00a 	eor	fp, r1, sl
    19c0:	e00bb00c 	and	fp, fp, ip
    19c4:	e02bb00a 	eor	fp, fp, sl
    19c8:	e0892002 	add	r2, r9, r2
    19cc:	e082200b 	add	r2, r2, fp
    19d0:	e0812de2 	add	r2, r1, r2, ror #27
    19d4:	e59f959c 	ldr	r9, [pc, #1436]	; 1f78 <MD5Transform+0x96c>
    19d8:	e022b001 	eor	fp, r2, r1
    19dc:	e0869009 	add	r9, r6, r9
    19e0:	e00bb00a 	and	fp, fp, sl
    19e4:	e02bb001 	eor	fp, fp, r1
    19e8:	e089c00c 	add	ip, r9, ip
    19ec:	e08cc00b 	add	ip, ip, fp
    19f0:	e59f9584 	ldr	r9, [pc, #1412]	; 1f7c <MD5Transform+0x970>
    19f4:	e59db00c 	ldr	fp, [sp, #12]
    19f8:	e082cbec 	add	ip, r2, ip, ror #23
    19fc:	e08b9009 	add	r9, fp, r9
    1a00:	e02cb002 	eor	fp, ip, r2
    1a04:	e00bb001 	and	fp, fp, r1
    1a08:	e02bb002 	eor	fp, fp, r2
    1a0c:	e089a00a 	add	sl, r9, sl
    1a10:	e08aa00b 	add	sl, sl, fp
    1a14:	e59f9564 	ldr	r9, [pc, #1380]	; 1f80 <MD5Transform+0x974>
    1a18:	e59db018 	ldr	fp, [sp, #24]
    1a1c:	e08ca96a 	add	sl, ip, sl, ror #18
    1a20:	e08b9009 	add	r9, fp, r9
    1a24:	e02ab00c 	eor	fp, sl, ip
    1a28:	e00bb002 	and	fp, fp, r2
    1a2c:	e02bb00c 	eor	fp, fp, ip
    1a30:	e0891001 	add	r1, r9, r1
    1a34:	e081100b 	add	r1, r1, fp
    1a38:	e59f9544 	ldr	r9, [pc, #1348]	; 1f84 <MD5Transform+0x978>
    1a3c:	e59db02c 	ldr	fp, [sp, #44]	; 0x2c
    1a40:	e08a1661 	add	r1, sl, r1, ror #12
    1a44:	e08b9009 	add	r9, fp, r9
    1a48:	e021b00a 	eor	fp, r1, sl
    1a4c:	e00bb00c 	and	fp, fp, ip
    1a50:	e02bb00a 	eor	fp, fp, sl
    1a54:	e0892002 	add	r2, r9, r2
    1a58:	e082200b 	add	r2, r2, fp
    1a5c:	e59f9524 	ldr	r9, [pc, #1316]	; 1f88 <MD5Transform+0x97c>
    1a60:	e59db008 	ldr	fp, [sp, #8]
    1a64:	e0812de2 	add	r2, r1, r2, ror #27
    1a68:	e08b9009 	add	r9, fp, r9
    1a6c:	e022b001 	eor	fp, r2, r1
    1a70:	e00bb00a 	and	fp, fp, sl
    1a74:	e02bb001 	eor	fp, fp, r1
    1a78:	e089c00c 	add	ip, r9, ip
    1a7c:	e08cc00b 	add	ip, ip, fp
    1a80:	e082cbec 	add	ip, r2, ip, ror #23
    1a84:	e59f9500 	ldr	r9, [pc, #1280]	; 1f8c <MD5Transform+0x980>
    1a88:	e02cb002 	eor	fp, ip, r2
    1a8c:	e0879009 	add	r9, r7, r9
    1a90:	e00bb001 	and	fp, fp, r1
    1a94:	e02bb002 	eor	fp, fp, r2
    1a98:	e089a00a 	add	sl, r9, sl
    1a9c:	e08aa00b 	add	sl, sl, fp
    1aa0:	e08ca96a 	add	sl, ip, sl, ror #18
    1aa4:	e02a900c 	eor	r9, sl, ip
    1aa8:	e58d9000 	str	r9, [sp]
    1aac:	e59db028 	ldr	fp, [sp, #40]	; 0x28
    1ab0:	e59f94d8 	ldr	r9, [pc, #1240]	; 1f90 <MD5Transform+0x984>
    1ab4:	e08b9009 	add	r9, fp, r9
    1ab8:	e59db000 	ldr	fp, [sp]
    1abc:	e0899001 	add	r9, r9, r1
    1ac0:	e00b1002 	and	r1, fp, r2
    1ac4:	e021100c 	eor	r1, r1, ip
    1ac8:	e0891001 	add	r1, r9, r1
    1acc:	e59f94c0 	ldr	r9, [pc, #1216]	; 1f94 <MD5Transform+0x988>
    1ad0:	e08a1661 	add	r1, sl, r1, ror #12
    1ad4:	e0859009 	add	r9, r5, r9
    1ad8:	e021b00b 	eor	fp, r1, fp
    1adc:	e0892002 	add	r2, r9, r2
    1ae0:	e082900b 	add	r9, r2, fp
    1ae4:	e59db018 	ldr	fp, [sp, #24]
    1ae8:	e59f24a8 	ldr	r2, [pc, #1192]	; 1f98 <MD5Transform+0x98c>
    1aec:	e0819e69 	add	r9, r1, r9, ror #28
    1af0:	e08b2002 	add	r2, fp, r2
    1af4:	e021b00a 	eor	fp, r1, sl
    1af8:	e02bb009 	eor	fp, fp, r9
    1afc:	e082c00c 	add	ip, r2, ip
    1b00:	e08cc00b 	add	ip, ip, fp
    1b04:	e59f2490 	ldr	r2, [pc, #1168]	; 1f9c <MD5Transform+0x990>
    1b08:	e59db024 	ldr	fp, [sp, #36]	; 0x24
    1b0c:	e089caec 	add	ip, r9, ip, ror #21
    1b10:	e08b2002 	add	r2, fp, r2
    1b14:	e029b001 	eor	fp, r9, r1
    1b18:	e02bb00c 	eor	fp, fp, ip
    1b1c:	e082a00a 	add	sl, r2, sl
    1b20:	e59f2478 	ldr	r2, [pc, #1144]	; 1fa0 <MD5Transform+0x994>
    1b24:	e08aa00b 	add	sl, sl, fp
    1b28:	e08ca86a 	add	sl, ip, sl, ror #16
    1b2c:	e0862002 	add	r2, r6, r2
    1b30:	e02cb009 	eor	fp, ip, r9
    1b34:	e02bb00a 	eor	fp, fp, sl
    1b38:	e0821001 	add	r1, r2, r1
    1b3c:	e081100b 	add	r1, r1, fp
    1b40:	e59f245c 	ldr	r2, [pc, #1116]	; 1fa4 <MD5Transform+0x998>
    1b44:	e59db004 	ldr	fp, [sp, #4]
    1b48:	e08a14e1 	add	r1, sl, r1, ror #9
    1b4c:	e08b2002 	add	r2, fp, r2
    1b50:	e02ab00c 	eor	fp, sl, ip
    1b54:	e02bb001 	eor	fp, fp, r1
    1b58:	e0829009 	add	r9, r2, r9
    1b5c:	e089900b 	add	r9, r9, fp
    1b60:	e59f2440 	ldr	r2, [pc, #1088]	; 1fa8 <MD5Transform+0x99c>
    1b64:	e59db010 	ldr	fp, [sp, #16]
    1b68:	e0819e69 	add	r9, r1, r9, ror #28
    1b6c:	e08b2002 	add	r2, fp, r2
    1b70:	e021b00a 	eor	fp, r1, sl
    1b74:	e02bb009 	eor	fp, fp, r9
    1b78:	e082c00c 	add	ip, r2, ip
    1b7c:	e59f2428 	ldr	r2, [pc, #1064]	; 1fac <MD5Transform+0x9a0>
    1b80:	e08cc00b 	add	ip, ip, fp
    1b84:	e089caec 	add	ip, r9, ip, ror #21
    1b88:	e029b001 	eor	fp, r9, r1
    1b8c:	e0872002 	add	r2, r7, r2
    1b90:	e02bb00c 	eor	fp, fp, ip
    1b94:	e082200a 	add	r2, r2, sl
    1b98:	e082200b 	add	r2, r2, fp
    1b9c:	e59fa40c 	ldr	sl, [pc, #1036]	; 1fb0 <MD5Transform+0x9a4>
    1ba0:	e59db020 	ldr	fp, [sp, #32]
    1ba4:	e08c2862 	add	r2, ip, r2, ror #16
    1ba8:	e08ba00a 	add	sl, fp, sl
    1bac:	e02cb009 	eor	fp, ip, r9
    1bb0:	e02bb002 	eor	fp, fp, r2
    1bb4:	e08aa001 	add	sl, sl, r1
    1bb8:	e08aa00b 	add	sl, sl, fp
    1bbc:	e59f13f0 	ldr	r1, [pc, #1008]	; 1fb4 <MD5Transform+0x9a8>
    1bc0:	e59db02c 	ldr	fp, [sp, #44]	; 0x2c
    1bc4:	e082a4ea 	add	sl, r2, sl, ror #9
    1bc8:	e08b1001 	add	r1, fp, r1
    1bcc:	e022b00c 	eor	fp, r2, ip
    1bd0:	e02bb00a 	eor	fp, fp, sl
    1bd4:	e0819009 	add	r9, r1, r9
    1bd8:	e59f13d8 	ldr	r1, [pc, #984]	; 1fb8 <MD5Transform+0x9ac>
    1bdc:	e089900b 	add	r9, r9, fp
    1be0:	e08a9e69 	add	r9, sl, r9, ror #28
    1be4:	e0881001 	add	r1, r8, r1
    1be8:	e02ab002 	eor	fp, sl, r2
    1bec:	e02bb009 	eor	fp, fp, r9
    1bf0:	e081c00c 	add	ip, r1, ip
    1bf4:	e08cc00b 	add	ip, ip, fp
    1bf8:	e59d100c 	ldr	r1, [sp, #12]
    1bfc:	e59fb3b8 	ldr	fp, [pc, #952]	; 1fbc <MD5Transform+0x9b0>
    1c00:	e089caec 	add	ip, r9, ip, ror #21
    1c04:	e081b00b 	add	fp, r1, fp
    1c08:	e029100a 	eor	r1, r9, sl
    1c0c:	e021100c 	eor	r1, r1, ip
    1c10:	e08bb002 	add	fp, fp, r2
    1c14:	e08bb001 	add	fp, fp, r1
    1c18:	e59f23a0 	ldr	r2, [pc, #928]	; 1fc0 <MD5Transform+0x9b4>
    1c1c:	e59d1014 	ldr	r1, [sp, #20]
    1c20:	e08cb86b 	add	fp, ip, fp, ror #16
    1c24:	e0812002 	add	r2, r1, r2
    1c28:	e02c1009 	eor	r1, ip, r9
    1c2c:	e021100b 	eor	r1, r1, fp
    1c30:	e082a00a 	add	sl, r2, sl
    1c34:	e08aa001 	add	sl, sl, r1
    1c38:	e59d201c 	ldr	r2, [sp, #28]
    1c3c:	e59f1380 	ldr	r1, [pc, #896]	; 1fc4 <MD5Transform+0x9b8>
    1c40:	e08ba4ea 	add	sl, fp, sl, ror #9
    1c44:	e0821001 	add	r1, r2, r1
    1c48:	e02b200c 	eor	r2, fp, ip
    1c4c:	e022200a 	eor	r2, r2, sl
    1c50:	e0811009 	add	r1, r1, r9
    1c54:	e0811002 	add	r1, r1, r2
    1c58:	e59d9028 	ldr	r9, [sp, #40]	; 0x28
    1c5c:	e59f2364 	ldr	r2, [pc, #868]	; 1fc8 <MD5Transform+0x9bc>
    1c60:	e08a1e61 	add	r1, sl, r1, ror #28
    1c64:	e0892002 	add	r2, r9, r2
    1c68:	e02a900b 	eor	r9, sl, fp
    1c6c:	e0299001 	eor	r9, r9, r1
    1c70:	e082c00c 	add	ip, r2, ip
    1c74:	e59f2350 	ldr	r2, [pc, #848]	; 1fcc <MD5Transform+0x9c0>
    1c78:	e08cc009 	add	ip, ip, r9
    1c7c:	e081caec 	add	ip, r1, ip, ror #21
    1c80:	e0842002 	add	r2, r4, r2
    1c84:	e021900a 	eor	r9, r1, sl
    1c88:	e029900c 	eor	r9, r9, ip
    1c8c:	e082b00b 	add	fp, r2, fp
    1c90:	e08bb009 	add	fp, fp, r9
    1c94:	e59f2334 	ldr	r2, [pc, #820]	; 1fd0 <MD5Transform+0x9c4>
    1c98:	e59d9008 	ldr	r9, [sp, #8]
    1c9c:	e08cb86b 	add	fp, ip, fp, ror #16
    1ca0:	e0892002 	add	r2, r9, r2
    1ca4:	e02c9001 	eor	r9, ip, r1
    1ca8:	e029900b 	eor	r9, r9, fp
    1cac:	e082200a 	add	r2, r2, sl
    1cb0:	e59fa31c 	ldr	sl, [pc, #796]	; 1fd4 <MD5Transform+0x9c8>
    1cb4:	e0822009 	add	r2, r2, r9
    1cb8:	e08b24e2 	add	r2, fp, r2, ror #9
    1cbc:	e088a00a 	add	sl, r8, sl
    1cc0:	e1e0800c 	mvn	r8, ip
    1cc4:	e1828008 	orr	r8, r2, r8
    1cc8:	e028800b 	eor	r8, r8, fp
    1ccc:	e08a1001 	add	r1, sl, r1
    1cd0:	e0811008 	add	r1, r1, r8
    1cd4:	e59f82fc 	ldr	r8, [pc, #764]	; 1fd8 <MD5Transform+0x9cc>
    1cd8:	e0821d61 	add	r1, r2, r1, ror #26
    1cdc:	e0878008 	add	r8, r7, r8
    1ce0:	e1e0700b 	mvn	r7, fp
    1ce4:	e1817007 	orr	r7, r1, r7
    1ce8:	e0277002 	eor	r7, r7, r2
    1cec:	e088c00c 	add	ip, r8, ip
    1cf0:	e08cc007 	add	ip, ip, r7
    1cf4:	e59f72e0 	ldr	r7, [pc, #736]	; 1fdc <MD5Transform+0x9d0>
    1cf8:	e081cb6c 	add	ip, r1, ip, ror #22
    1cfc:	e0867007 	add	r7, r6, r7
    1d00:	e1e06002 	mvn	r6, r2
    1d04:	e18c6006 	orr	r6, ip, r6
    1d08:	e0266001 	eor	r6, r6, r1
    1d0c:	e087700b 	add	r7, r7, fp
    1d10:	e0877006 	add	r7, r7, r6
    1d14:	e59f62c4 	ldr	r6, [pc, #708]	; 1fe0 <MD5Transform+0x9d4>
    1d18:	e08c78e7 	add	r7, ip, r7, ror #17
    1d1c:	e0856006 	add	r6, r5, r6
    1d20:	e1e05001 	mvn	r5, r1
    1d24:	e1875005 	orr	r5, r7, r5
    1d28:	e025500c 	eor	r5, r5, ip
    1d2c:	e0862002 	add	r2, r6, r2
    1d30:	e0822005 	add	r2, r2, r5
    1d34:	e59da028 	ldr	sl, [sp, #40]	; 0x28
    1d38:	e59f52a4 	ldr	r5, [pc, #676]	; 1fe4 <MD5Transform+0x9d8>
    1d3c:	e08725e2 	add	r2, r7, r2, ror #11
    1d40:	e1e0600c 	mvn	r6, ip
    1d44:	e08a5005 	add	r5, sl, r5
    1d48:	e1826006 	orr	r6, r2, r6
    1d4c:	e0266007 	eor	r6, r6, r7
    1d50:	e0851001 	add	r1, r5, r1
    1d54:	e0811006 	add	r1, r1, r6
    1d58:	e59db00c 	ldr	fp, [sp, #12]
    1d5c:	e59f5284 	ldr	r5, [pc, #644]	; 1fe8 <MD5Transform+0x9dc>
    1d60:	e0821d61 	add	r1, r2, r1, ror #26
    1d64:	e1e06007 	mvn	r6, r7
    1d68:	e08b5005 	add	r5, fp, r5
    1d6c:	e1816006 	orr	r6, r1, r6
    1d70:	e0266002 	eor	r6, r6, r2
    1d74:	e085c00c 	add	ip, r5, ip
    1d78:	e08cc006 	add	ip, ip, r6
    1d7c:	e59f5268 	ldr	r5, [pc, #616]	; 1fec <MD5Transform+0x9e0>
    1d80:	e59d6020 	ldr	r6, [sp, #32]
    1d84:	e081cb6c 	add	ip, r1, ip, ror #22
    1d88:	e0865005 	add	r5, r6, r5
    1d8c:	e1e06002 	mvn	r6, r2
    1d90:	e18c6006 	orr	r6, ip, r6
    1d94:	e0266001 	eor	r6, r6, r1
    1d98:	e0857007 	add	r7, r5, r7
    1d9c:	e0877006 	add	r7, r7, r6
    1da0:	e59d9004 	ldr	r9, [sp, #4]
    1da4:	e59f5244 	ldr	r5, [pc, #580]	; 1ff0 <MD5Transform+0x9e4>
    1da8:	e08c78e7 	add	r7, ip, r7, ror #17
    1dac:	e1e08001 	mvn	r8, r1
    1db0:	e0895005 	add	r5, r9, r5
    1db4:	e1878008 	orr	r8, r7, r8
    1db8:	e0852002 	add	r2, r5, r2
    1dbc:	e028800c 	eor	r8, r8, ip
    1dc0:	e59da018 	ldr	sl, [sp, #24]
    1dc4:	e0822008 	add	r2, r2, r8
    1dc8:	e59f5224 	ldr	r5, [pc, #548]	; 1ff4 <MD5Transform+0x9e8>
    1dcc:	e08725e2 	add	r2, r7, r2, ror #11
    1dd0:	e1e0600c 	mvn	r6, ip
    1dd4:	e08a5005 	add	r5, sl, r5
    1dd8:	e1826006 	orr	r6, r2, r6
    1ddc:	e0266007 	eor	r6, r6, r7
    1de0:	e0851001 	add	r1, r5, r1
    1de4:	e59f520c 	ldr	r5, [pc, #524]	; 1ff8 <MD5Transform+0x9ec>
    1de8:	e0811006 	add	r1, r1, r6
    1dec:	e0821d61 	add	r1, r2, r1, ror #26
    1df0:	e0845005 	add	r5, r4, r5
    1df4:	e1e04007 	mvn	r4, r7
    1df8:	e1814004 	orr	r4, r1, r4
    1dfc:	e0244002 	eor	r4, r4, r2
    1e00:	e085c00c 	add	ip, r5, ip
    1e04:	e08cc004 	add	ip, ip, r4
    1e08:	e59db014 	ldr	fp, [sp, #20]
    1e0c:	e59f41e8 	ldr	r4, [pc, #488]	; 1ffc <MD5Transform+0x9f0>
    1e10:	e081cb6c 	add	ip, r1, ip, ror #22
    1e14:	e1e06002 	mvn	r6, r2
    1e18:	e08b4004 	add	r4, fp, r4
    1e1c:	e18c6006 	orr	r6, ip, r6
    1e20:	e0266001 	eor	r6, r6, r1
    1e24:	e0844007 	add	r4, r4, r7
    1e28:	e0844006 	add	r4, r4, r6
    1e2c:	e59f51cc 	ldr	r5, [pc, #460]	; 2000 <MD5Transform+0x9f4>
    1e30:	e59d602c 	ldr	r6, [sp, #44]	; 0x2c
    1e34:	e08c48e4 	add	r4, ip, r4, ror #17
    1e38:	e0865005 	add	r5, r6, r5
    1e3c:	e1e06001 	mvn	r6, r1
    1e40:	e1846006 	orr	r6, r4, r6
    1e44:	e026600c 	eor	r6, r6, ip
    1e48:	e0852002 	add	r2, r5, r2
    1e4c:	e0822006 	add	r2, r2, r6
    1e50:	e59d7010 	ldr	r7, [sp, #16]
    1e54:	e59f51a8 	ldr	r5, [pc, #424]	; 2004 <MD5Transform+0x9f8>
    1e58:	e08425e2 	add	r2, r4, r2, ror #11
    1e5c:	e1e0600c 	mvn	r6, ip
    1e60:	e0875005 	add	r5, r7, r5
    1e64:	e1826006 	orr	r6, r2, r6
    1e68:	e0266004 	eor	r6, r6, r4
    1e6c:	e0851001 	add	r1, r5, r1
    1e70:	e0811006 	add	r1, r1, r6
    1e74:	e59f518c 	ldr	r5, [pc, #396]	; 2008 <MD5Transform+0x9fc>
    1e78:	e59d9024 	ldr	r9, [sp, #36]	; 0x24
    1e7c:	e0821d61 	add	r1, r2, r1, ror #26
    1e80:	e1e06004 	mvn	r6, r4
    1e84:	e0895005 	add	r5, r9, r5
    1e88:	e1816006 	orr	r6, r1, r6
    1e8c:	e0266002 	eor	r6, r6, r2
    1e90:	e085c00c 	add	ip, r5, ip
    1e94:	e08cc006 	add	ip, ip, r6
    1e98:	e59f516c 	ldr	r5, [pc, #364]	; 200c <MD5Transform+0xa00>
    1e9c:	e59da008 	ldr	sl, [sp, #8]
    1ea0:	e081cb6c 	add	ip, r1, ip, ror #22
    1ea4:	e1e06002 	mvn	r6, r2
    1ea8:	e08a5005 	add	r5, sl, r5
    1eac:	e18c6006 	orr	r6, ip, r6
    1eb0:	e0266001 	eor	r6, r6, r1
    1eb4:	e0854004 	add	r4, r5, r4
    1eb8:	e0844006 	add	r4, r4, r6
    1ebc:	e59f514c 	ldr	r5, [pc, #332]	; 2010 <MD5Transform+0xa04>
    1ec0:	e59db01c 	ldr	fp, [sp, #28]
    1ec4:	e08c48e4 	add	r4, ip, r4, ror #17
    1ec8:	e1e06001 	mvn	r6, r1
    1ecc:	e08b5005 	add	r5, fp, r5
    1ed0:	e1846006 	orr	r6, r4, r6
    1ed4:	e026600c 	eor	r6, r6, ip
    1ed8:	e0852002 	add	r2, r5, r2
    1edc:	e0822006 	add	r2, r2, r6
    1ee0:	e5905000 	ldr	r5, [r0]
    1ee4:	e5906008 	ldr	r6, [r0, #8]
    1ee8:	e590700c 	ldr	r7, [r0, #12]
    1eec:	e0843003 	add	r3, r4, r3
    1ef0:	e0811005 	add	r1, r1, r5
    1ef4:	e08335e2 	add	r3, r3, r2, ror #11
    1ef8:	e0844006 	add	r4, r4, r6
    1efc:	e08cc007 	add	ip, ip, r7
    1f00:	e5801000 	str	r1, [r0]
    1f04:	e5803004 	str	r3, [r0, #4]
    1f08:	e5804008 	str	r4, [r0, #8]
    1f0c:	e580c00c 	str	ip, [r0, #12]
    1f10:	e28dd034 	add	sp, sp, #52	; 0x34
    1f14:	e8bd8ff0 	pop	{r4, r5, r6, r7, r8, r9, sl, fp, pc}
    1f18:	d76aa478 			; <UNDEFINED> instruction: 0xd76aa478
    1f1c:	e8c7b756 	stmia	r7, {r1, r2, r4, r6, r8, r9, sl, ip, sp, pc}^
    1f20:	242070db 	strtcs	r7, [r0], #-219	; 0xdb
    1f24:	c1bdceee 			; <UNDEFINED> instruction: 0xc1bdceee
    1f28:	f57c0faf 			; <UNDEFINED> instruction: 0xf57c0faf
    1f2c:	4787c62a 	strmi	ip, [r7, sl, lsr #12]
    1f30:	a8304613 	ldmdage	r0!, {r0, r1, r4, r9, sl, lr}
    1f34:	fd469501 	stc2l	5, cr9, [r6, #-4]
    1f38:	698098d8 	stmibvs	r0, {r3, r4, r6, r7, fp, ip, pc}
    1f3c:	8b44f7af 	blhi	113fe00 <__data_beg_src__+0x10eb6be>
    1f40:	895cd7be 	ldmdbhi	ip, {r1, r2, r3, r4, r5, r7, r8, r9, sl, ip, lr, pc}^
    1f44:	6b901122 	blvs	fe4063d4 <__data_beg_src__+0xfe3b1c92>
    1f48:	fd987193 	ldc2	1, cr7, [r8, #588]	; 0x24c
    1f4c:	a679438e 	ldrbtge	r4, [r9], -lr, lsl #7
    1f50:	49b40821 	ldmibmi	r4!, {r0, r5, fp}
    1f54:	f61e2562 			; <UNDEFINED> instruction: 0xf61e2562
    1f58:	c040b340 	subgt	fp, r0, r0, asr #6
    1f5c:	265e5a51 			; <UNDEFINED> instruction: 0x265e5a51
    1f60:	e9b6c7aa 	ldmib	r6!, {r1, r3, r5, r7, r8, r9, sl, lr, pc}
    1f64:	d62f105d 			; <UNDEFINED> instruction: 0xd62f105d
    1f68:	02441453 	subeq	r1, r4, #1392508928	; 0x53000000
    1f6c:	d8a1e681 	stmiale	r1!, {r0, r7, r9, sl, sp, lr, pc}
    1f70:	e7d3fbc8 	ldrb	pc, [r3, r8, asr #23]	; <UNPREDICTABLE>
    1f74:	21e1cde6 	mvncs	ip, r6, ror #27
    1f78:	c33707d6 	teqgt	r7, #56098816	; 0x3580000
    1f7c:	f4d50d87 			; <UNDEFINED> instruction: 0xf4d50d87
    1f80:	455a14ed 	ldrbmi	r1, [sl, #-1261]	; 0x4ed
    1f84:	a9e3e905 	stmibge	r3!, {r0, r2, r8, fp, sp, lr, pc}^
    1f88:	fcefa3f8 	stc2l	3, cr10, [pc], #992	; 2370 <gen_k_pad+0x2c>
    1f8c:	676f02d9 			; <UNDEFINED> instruction: 0x676f02d9
    1f90:	8d2a4c8a 	stchi	12, cr4, [sl, #-552]!	; 0xfffffdd8
    1f94:	fffa3942 			; <UNDEFINED> instruction: 0xfffa3942
    1f98:	8771f681 	ldrbhi	pc, [r1, -r1, lsl #13]!	; <UNPREDICTABLE>
    1f9c:	6d9d6122 	ldfvss	f6, [sp, #136]	; 0x88
    1fa0:	fde5380c 	stc2l	8, cr3, [r5, #48]!	; 0x30
    1fa4:	a4beea44 	ldrtge	lr, [lr], #2628	; 0xa44
    1fa8:	4bdecfa9 	blmi	ff7b5e54 <__data_beg_src__+0xff761712>
    1fac:	f6bb4b60 			; <UNDEFINED> instruction: 0xf6bb4b60
    1fb0:	bebfbc70 	mrclt	12, 5, fp, cr15, cr0, {3}
    1fb4:	289b7ec6 	ldmcs	fp, {r1, r2, r6, r7, r9, sl, fp, ip, sp, lr}
    1fb8:	eaa127fa 	b	fe84bfa8 <__data_beg_src__+0xfe7f7866>
    1fbc:	d4ef3085 	strbtle	r3, [pc], #133	; 1fc4 <MD5Transform+0x9b8>
    1fc0:	04881d05 	streq	r1, [r8], #3333	; 0xd05
    1fc4:	d9d4d039 	ldmible	r4, {r0, r3, r4, r5, ip, lr, pc}^
    1fc8:	e6db99e5 	ldrb	r9, [fp], r5, ror #19
    1fcc:	1fa27cf8 	svcne	0x00a27cf8
    1fd0:	c4ac5665 	strtgt	r5, [ip], #1637	; 0x665
    1fd4:	f4292244 	vld1.16	{d2-d5}, [r9], r4
    1fd8:	432aff97 	msrmi	CPSR_fx, #604	; 0x25c
    1fdc:	ab9423a7 	blge	fe50ae80 <__data_beg_src__+0xfe4b673e>
    1fe0:	fc93a039 	ldc2	0, cr10, [r3], {57}	; 0x39
    1fe4:	655b59c3 	ldrbvs	r5, [fp, #-2499]	; 0x9c3
    1fe8:	8f0ccc92 	svchi	0x000ccc92
    1fec:	ffeff47d 			; <UNDEFINED> instruction: 0xffeff47d
    1ff0:	85845dd1 	strhi	r5, [r4, #3537]	; 0xdd1
    1ff4:	6fa87e4f 	svcvs	0x00a87e4f
    1ff8:	fe2ce6e0 	cdp2	6, 2, cr14, cr12, cr0, {7}
    1ffc:	a3014314 	movwge	r4, #4884	; 0x1314
    2000:	4e0811a1 	adfmi<illegal precision>p	f1, f0, f1
    2004:	f7537e82 			; <UNDEFINED> instruction: 0xf7537e82
    2008:	bd3af235 	lfmlt	f7, 1, [sl, #-212]!	; 0xffffff2c
    200c:	2ad7d2bb 	bcs	ff5f6b00 <__data_beg_src__+0xff5a23be>
    2010:	eb86d391 	bl	fe1b6e5c <__data_beg_src__+0xfe16271a>

00002014 <MD5Init>:
    2014:	e59f301c 	ldr	r3, [pc, #28]	; 2038 <MD5Init+0x24>
    2018:	e59f101c 	ldr	r1, [pc, #28]	; 203c <MD5Init+0x28>
    201c:	e59f201c 	ldr	r2, [pc, #28]	; 2040 <MD5Init+0x2c>
    2020:	e59fc01c 	ldr	ip, [pc, #28]	; 2044 <MD5Init+0x30>
    2024:	e880100e 	stm	r0, {r1, r2, r3, ip}
    2028:	e3a03000 	mov	r3, #0
    202c:	e5803010 	str	r3, [r0, #16]
    2030:	e5803014 	str	r3, [r0, #20]
    2034:	e1a0f00e 	mov	pc, lr
    2038:	98badcfe 	ldmls	sl!, {r1, r2, r3, r4, r5, r6, r7, sl, fp, ip, lr, pc}
    203c:	67452301 	strbvs	r2, [r5, -r1, lsl #6]
    2040:	efcdab89 	svc	0x00cdab89
    2044:	10325476 	eorsne	r5, r2, r6, ror r4

00002048 <MD5Update>:
    2048:	e92d45f8 	push	{r3, r4, r5, r6, r7, r8, sl, lr}
    204c:	e5907010 	ldr	r7, [r0, #16]
    2050:	e0873182 	add	r3, r7, r2, lsl #3
    2054:	e1530007 	cmp	r3, r7
    2058:	e5803010 	str	r3, [r0, #16]
    205c:	35903014 	ldrcc	r3, [r0, #20]
    2060:	32833001 	addcc	r3, r3, #1
    2064:	35803014 	strcc	r3, [r0, #20]
    2068:	e5903014 	ldr	r3, [r0, #20]
    206c:	e1a071a7 	lsr	r7, r7, #3
    2070:	e0833ea2 	add	r3, r3, r2, lsr #29
    2074:	e217703f 	ands	r7, r7, #63	; 0x3f
    2078:	e1a04000 	mov	r4, r0
    207c:	e1a06001 	mov	r6, r1
    2080:	e1a05002 	mov	r5, r2
    2084:	e5803014 	str	r3, [r0, #20]
    2088:	0a00000c 	beq	20c0 <MD5Update+0x78>
    208c:	e2870018 	add	r0, r7, #24
    2090:	e2677040 	rsb	r7, r7, #64	; 0x40
    2094:	e1520007 	cmp	r2, r7
    2098:	e0840000 	add	r0, r4, r0
    209c:	31a02002 	movcc	r2, r2
    20a0:	3a000019 	bcc	210c <MD5Update+0xc4>
    20a4:	e1a02007 	mov	r2, r7
    20a8:	eb00703a 	bl	1e198 <memcpy>
    20ac:	e1a00004 	mov	r0, r4
    20b0:	e2841018 	add	r1, r4, #24
    20b4:	ebfffd54 	bl	160c <MD5Transform>
    20b8:	e0866007 	add	r6, r6, r7
    20bc:	e0675005 	rsb	r5, r7, r5
    20c0:	e1a0a005 	mov	sl, r5
    20c4:	e1a08006 	mov	r8, r6
    20c8:	e2847018 	add	r7, r4, #24
    20cc:	ea000008 	b	20f4 <MD5Update+0xac>
    20d0:	e1a01008 	mov	r1, r8
    20d4:	e3a02040 	mov	r2, #64	; 0x40
    20d8:	e1a00007 	mov	r0, r7
    20dc:	eb00702d 	bl	1e198 <memcpy>
    20e0:	e1a00004 	mov	r0, r4
    20e4:	e1a01007 	mov	r1, r7
    20e8:	ebfffd47 	bl	160c <MD5Transform>
    20ec:	e2888040 	add	r8, r8, #64	; 0x40
    20f0:	e24aa040 	sub	sl, sl, #64	; 0x40
    20f4:	e35a003f 	cmp	sl, #63	; 0x3f
    20f8:	8afffff4 	bhi	20d0 <MD5Update+0x88>
    20fc:	e3c5103f 	bic	r1, r5, #63	; 0x3f
    2100:	e1a00007 	mov	r0, r7
    2104:	e0861001 	add	r1, r6, r1
    2108:	e205203f 	and	r2, r5, #63	; 0x3f
    210c:	e8bd45f8 	pop	{r3, r4, r5, r6, r7, r8, sl, lr}
    2110:	ea007020 	b	1e198 <memcpy>

00002114 <MD5Final>:
    2114:	e5913010 	ldr	r3, [r1, #16]
    2118:	e1a031a3 	lsr	r3, r3, #3
    211c:	e203303f 	and	r3, r3, #63	; 0x3f
    2120:	e263203f 	rsb	r2, r3, #63	; 0x3f
    2124:	e92d4070 	push	{r4, r5, r6, lr}
    2128:	e3520007 	cmp	r2, #7
    212c:	e1a05000 	mov	r5, r0
    2130:	e1a04001 	mov	r4, r1
    2134:	e0810003 	add	r0, r1, r3
    2138:	e3e0107f 	mvn	r1, #127	; 0x7f
    213c:	e5c01018 	strb	r1, [r0, #24]
    2140:	82632037 	rsbhi	r2, r3, #55	; 0x37
    2144:	e2800019 	add	r0, r0, #25
    2148:	e3a01000 	mov	r1, #0
    214c:	8a000007 	bhi	2170 <MD5Final+0x5c>
    2150:	e2846018 	add	r6, r4, #24
    2154:	eb006fd6 	bl	1e0b4 <memset>
    2158:	e1a00004 	mov	r0, r4
    215c:	e1a01006 	mov	r1, r6
    2160:	ebfffd29 	bl	160c <MD5Transform>
    2164:	e1a00006 	mov	r0, r6
    2168:	e3a01000 	mov	r1, #0
    216c:	e3a02038 	mov	r2, #56	; 0x38
    2170:	eb006fcf 	bl	1e0b4 <memset>
    2174:	e5943010 	ldr	r3, [r4, #16]
    2178:	e5843050 	str	r3, [r4, #80]	; 0x50
    217c:	e5943014 	ldr	r3, [r4, #20]
    2180:	e1a00004 	mov	r0, r4
    2184:	e5843054 	str	r3, [r4, #84]	; 0x54
    2188:	e2841018 	add	r1, r4, #24
    218c:	ebfffd1e 	bl	160c <MD5Transform>
    2190:	e1a01004 	mov	r1, r4
    2194:	e1a00005 	mov	r0, r5
    2198:	e3a02010 	mov	r2, #16
    219c:	eb006ffd 	bl	1e198 <memcpy>
    21a0:	e1a00004 	mov	r0, r4
    21a4:	e3a01000 	mov	r1, #0
    21a8:	e3a02058 	mov	r2, #88	; 0x58
    21ac:	e8bd4070 	pop	{r4, r5, r6, lr}
    21b0:	ea006fbf 	b	1e0b4 <memset>

000021b4 <md5_vector>:
    21b4:	e92d47f0 	push	{r4, r5, r6, r7, r8, r9, sl, lr}
    21b8:	e24dd058 	sub	sp, sp, #88	; 0x58
    21bc:	e1a05000 	mov	r5, r0
    21c0:	e3a06000 	mov	r6, #0
    21c4:	e1a0000d 	mov	r0, sp
    21c8:	e1a04001 	mov	r4, r1
    21cc:	e1a09002 	mov	r9, r2
    21d0:	e1a0a003 	mov	sl, r3
    21d4:	e1a07006 	mov	r7, r6
    21d8:	ebffff8d 	bl	2014 <MD5Init>
    21dc:	e1a0800d 	mov	r8, sp
    21e0:	ea000005 	b	21fc <md5_vector+0x48>
    21e4:	e7941006 	ldr	r1, [r4, r6]
    21e8:	e7992006 	ldr	r2, [r9, r6]
    21ec:	e1a0000d 	mov	r0, sp
    21f0:	ebffff94 	bl	2048 <MD5Update>
    21f4:	e2877001 	add	r7, r7, #1
    21f8:	e2866004 	add	r6, r6, #4
    21fc:	e1570005 	cmp	r7, r5
    2200:	1afffff7 	bne	21e4 <md5_vector+0x30>
    2204:	e1a0000a 	mov	r0, sl
    2208:	e1a0100d 	mov	r1, sp
    220c:	ebffffc0 	bl	2114 <MD5Final>
    2210:	e3a00000 	mov	r0, #0
    2214:	e28dd058 	add	sp, sp, #88	; 0x58
    2218:	e8bd87f0 	pop	{r4, r5, r6, r7, r8, r9, sl, pc}

0000221c <rc4_skip>:
    221c:	e92d47f0 	push	{r4, r5, r6, r7, r8, r9, sl, lr}
    2220:	e24ddc01 	sub	sp, sp, #256	; 0x100
    2224:	e59d5120 	ldr	r5, [sp, #288]	; 0x120
    2228:	e3a0c000 	mov	ip, #0
    222c:	e1a0700d 	mov	r7, sp
    2230:	e7ccc007 	strb	ip, [ip, r7]
    2234:	e28cc001 	add	ip, ip, #1
    2238:	e35c0c01 	cmp	ip, #256	; 0x100
    223c:	1afffffa 	bne	222c <rc4_skip+0x10>
    2240:	e3a0c000 	mov	ip, #0
    2244:	e1a0600c 	mov	r6, ip
    2248:	e1a0400c 	mov	r4, ip
    224c:	e7d4a007 	ldrb	sl, [r4, r7]
    2250:	e7d0800c 	ldrb	r8, [r0, ip]
    2254:	e08a6006 	add	r6, sl, r6
    2258:	e0866008 	add	r6, r6, r8
    225c:	e28d9c01 	add	r9, sp, #256	; 0x100
    2260:	e20660ff 	and	r6, r6, #255	; 0xff
    2264:	e0898006 	add	r8, r9, r6
    2268:	e5589100 	ldrb	r9, [r8, #-256]	; 0x100
    226c:	e28cc001 	add	ip, ip, #1
    2270:	e15c0001 	cmp	ip, r1
    2274:	e7c79004 	strb	r9, [r7, r4]
    2278:	e2844001 	add	r4, r4, #1
    227c:	23a0c000 	movcs	ip, #0
    2280:	e3540c01 	cmp	r4, #256	; 0x100
    2284:	e548a100 	strb	sl, [r8, #-256]	; 0x100
    2288:	1affffef 	bne	224c <rc4_skip+0x30>
    228c:	e3a0c000 	mov	ip, #0
    2290:	e1a0000c 	mov	r0, ip
    2294:	e1a0100c 	mov	r1, ip
    2298:	ea00000b 	b	22cc <rc4_skip+0xb0>
    229c:	e2811001 	add	r1, r1, #1
    22a0:	e28d4c01 	add	r4, sp, #256	; 0x100
    22a4:	e20110ff 	and	r1, r1, #255	; 0xff
    22a8:	e0847001 	add	r7, r4, r1
    22ac:	e5576100 	ldrb	r6, [r7, #-256]	; 0x100
    22b0:	e0860000 	add	r0, r6, r0
    22b4:	e20000ff 	and	r0, r0, #255	; 0xff
    22b8:	e0844000 	add	r4, r4, r0
    22bc:	e5548100 	ldrb	r8, [r4, #-256]	; 0x100
    22c0:	e5478100 	strb	r8, [r7, #-256]	; 0x100
    22c4:	e5446100 	strb	r6, [r4, #-256]	; 0x100
    22c8:	e28cc001 	add	ip, ip, #1
    22cc:	e15c0002 	cmp	ip, r2
    22d0:	1afffff1 	bne	229c <rc4_skip+0x80>
    22d4:	e3a02000 	mov	r2, #0
    22d8:	ea000014 	b	2330 <rc4_skip+0x114>
    22dc:	e2811001 	add	r1, r1, #1
    22e0:	e28d7c01 	add	r7, sp, #256	; 0x100
    22e4:	e20110ff 	and	r1, r1, #255	; 0xff
    22e8:	e0874001 	add	r4, r7, r1
    22ec:	e554c100 	ldrb	ip, [r4, #-256]	; 0x100
    22f0:	e08c0000 	add	r0, ip, r0
    22f4:	e20000ff 	and	r0, r0, #255	; 0xff
    22f8:	e0876000 	add	r6, r7, r0
    22fc:	e5567100 	ldrb	r7, [r6, #-256]	; 0x100
    2300:	e5447100 	strb	r7, [r4, #-256]	; 0x100
    2304:	e546c100 	strb	ip, [r6, #-256]	; 0x100
    2308:	e5544100 	ldrb	r4, [r4, #-256]	; 0x100
    230c:	e084c00c 	add	ip, r4, ip
    2310:	e20cc0ff 	and	ip, ip, #255	; 0xff
    2314:	e28d8c01 	add	r8, sp, #256	; 0x100
    2318:	e088c00c 	add	ip, r8, ip
    231c:	e55c4100 	ldrb	r4, [ip, #-256]	; 0x100
    2320:	e7d3c002 	ldrb	ip, [r3, r2]
    2324:	e024c00c 	eor	ip, r4, ip
    2328:	e7c3c002 	strb	ip, [r3, r2]
    232c:	e2822001 	add	r2, r2, #1
    2330:	e1520005 	cmp	r2, r5
    2334:	1affffe8 	bne	22dc <rc4_skip+0xc0>
    2338:	e3a00000 	mov	r0, #0
    233c:	e28ddc01 	add	sp, sp, #256	; 0x100
    2340:	e8bd87f0 	pop	{r4, r5, r6, r7, r8, r9, sl, pc}

00002344 <gen_k_pad>:
    2344:	e92d40f0 	push	{r4, r5, r6, r7, lr}
    2348:	e1a05121 	lsr	r5, r1, #2
    234c:	e20360ff 	and	r6, r3, #255	; 0xff
    2350:	e1a04005 	mov	r4, r5
    2354:	e3a0c000 	mov	ip, #0
    2358:	e0827105 	add	r7, r2, r5, lsl #2
    235c:	ea000002 	b	236c <gen_k_pad+0x28>
    2360:	e787300c 	str	r3, [r7, ip]
    2364:	e2844001 	add	r4, r4, #1
    2368:	e28cc004 	add	ip, ip, #4
    236c:	e354000f 	cmp	r4, #15
    2370:	9afffffa 	bls	2360 <gen_k_pad+0x1c>
    2374:	e210c003 	ands	ip, r0, #3
    2378:	01a0400c 	moveq	r4, ip
    237c:	0a000005 	beq	2398 <gen_k_pad+0x54>
    2380:	ea000008 	b	23a8 <gen_k_pad+0x64>
    2384:	e790700c 	ldr	r7, [r0, ip]
    2388:	e0277003 	eor	r7, r7, r3
    238c:	e782700c 	str	r7, [r2, ip]
    2390:	e2844001 	add	r4, r4, #1
    2394:	e28cc004 	add	ip, ip, #4
    2398:	e1540005 	cmp	r4, r5
    239c:	1afffff8 	bne	2384 <gen_k_pad+0x40>
    23a0:	e1a03104 	lsl	r3, r4, #2
    23a4:	ea000005 	b	23c0 <gen_k_pad+0x7c>
    23a8:	e3a03000 	mov	r3, #0
    23ac:	ea000003 	b	23c0 <gen_k_pad+0x7c>
    23b0:	e7d0c003 	ldrb	ip, [r0, r3]
    23b4:	e026c00c 	eor	ip, r6, ip
    23b8:	e7c2c003 	strb	ip, [r2, r3]
    23bc:	e2833001 	add	r3, r3, #1
    23c0:	e1530001 	cmp	r3, r1
    23c4:	3afffff9 	bcc	23b0 <gen_k_pad+0x6c>
    23c8:	e8bd80f0 	pop	{r4, r5, r6, r7, pc}

000023cc <prepare_hmac_sha1_vector>:
    23cc:	e92d4030 	push	{r4, r5, lr}
    23d0:	e3510040 	cmp	r1, #64	; 0x40
    23d4:	e24dd024 	sub	sp, sp, #36	; 0x24
    23d8:	e58d0004 	str	r0, [sp, #4]
    23dc:	e58d1000 	str	r1, [sp]
    23e0:	e1a04002 	mov	r4, r2
    23e4:	9a00000b 	bls	2418 <prepare_hmac_sha1_vector+0x4c>
    23e8:	e28d500c 	add	r5, sp, #12
    23ec:	e3a00001 	mov	r0, #1
    23f0:	e28d1004 	add	r1, sp, #4
    23f4:	e1a0200d 	mov	r2, sp
    23f8:	e1a03005 	mov	r3, r5
    23fc:	eb00018a 	bl	2a2c <sha1_vector>
    2400:	e3500000 	cmp	r0, #0
    2404:	13e00000 	mvnne	r0, #0
    2408:	1a00000d 	bne	2444 <prepare_hmac_sha1_vector+0x78>
    240c:	e3a03014 	mov	r3, #20
    2410:	e58d5004 	str	r5, [sp, #4]
    2414:	e58d3000 	str	r3, [sp]
    2418:	e59d0004 	ldr	r0, [sp, #4]
    241c:	e59d1000 	ldr	r1, [sp]
    2420:	e5942000 	ldr	r2, [r4]
    2424:	e59f3020 	ldr	r3, [pc, #32]	; 244c <prepare_hmac_sha1_vector+0x80>
    2428:	ebffffc5 	bl	2344 <gen_k_pad>
    242c:	e59d0004 	ldr	r0, [sp, #4]
    2430:	e59d1000 	ldr	r1, [sp]
    2434:	e5942004 	ldr	r2, [r4, #4]
    2438:	e59f3010 	ldr	r3, [pc, #16]	; 2450 <prepare_hmac_sha1_vector+0x84>
    243c:	ebffffc0 	bl	2344 <gen_k_pad>
    2440:	e3a00000 	mov	r0, #0
    2444:	e28dd024 	add	sp, sp, #36	; 0x24
    2448:	e8bd8030 	pop	{r4, r5, pc}
    244c:	36363636 			; <UNDEFINED> instruction: 0x36363636
    2450:	5c5c5c5c 	mrrcpl	12, 5, r5, ip, cr12

00002454 <exec_hmac_sha1_vector>:
    2454:	e92d40f0 	push	{r4, r5, r6, r7, lr}
    2458:	e1a06000 	mov	r6, r0
    245c:	e5900000 	ldr	r0, [r0]
    2460:	e24dd034 	sub	sp, sp, #52	; 0x34
    2464:	e58d0000 	str	r0, [sp]
    2468:	e3a00040 	mov	r0, #64	; 0x40
    246c:	e58d0018 	str	r0, [sp, #24]
    2470:	e3a00000 	mov	r0, #0
    2474:	e59d4048 	ldr	r4, [sp, #72]	; 0x48
    2478:	e1a0e101 	lsl	lr, r1, #2
    247c:	e1a0c000 	mov	ip, r0
    2480:	ea000004 	b	2498 <exec_hmac_sha1_vector+0x44>
    2484:	e7927000 	ldr	r7, [r2, r0]
    2488:	e78d700c 	str	r7, [sp, ip]
    248c:	e7937000 	ldr	r7, [r3, r0]
    2490:	e785700c 	str	r7, [r5, ip]
    2494:	e2800004 	add	r0, r0, #4
    2498:	e150000e 	cmp	r0, lr
    249c:	e28cc004 	add	ip, ip, #4
    24a0:	e28d5018 	add	r5, sp, #24
    24a4:	1afffff6 	bne	2484 <exec_hmac_sha1_vector+0x30>
    24a8:	e2810001 	add	r0, r1, #1
    24ac:	e1a02005 	mov	r2, r5
    24b0:	e1a0100d 	mov	r1, sp
    24b4:	e1a03004 	mov	r3, r4
    24b8:	eb00015b 	bl	2a2c <sha1_vector>
    24bc:	e3500000 	cmp	r0, #0
    24c0:	13e00000 	mvnne	r0, #0
    24c4:	1a00000b 	bne	24f8 <exec_hmac_sha1_vector+0xa4>
    24c8:	e5963004 	ldr	r3, [r6, #4]
    24cc:	e58d3000 	str	r3, [sp]
    24d0:	e3a03040 	mov	r3, #64	; 0x40
    24d4:	e58d3018 	str	r3, [sp, #24]
    24d8:	e3a03014 	mov	r3, #20
    24dc:	e58d301c 	str	r3, [sp, #28]
    24e0:	e3a00002 	mov	r0, #2
    24e4:	e1a0100d 	mov	r1, sp
    24e8:	e1a02005 	mov	r2, r5
    24ec:	e1a03004 	mov	r3, r4
    24f0:	e58d4004 	str	r4, [sp, #4]
    24f4:	eb00014c 	bl	2a2c <sha1_vector>
    24f8:	e28dd034 	add	sp, sp, #52	; 0x34
    24fc:	e8bd80f0 	pop	{r4, r5, r6, r7, pc}

00002500 <hmac_sha1_vector>:
    2500:	e92d407f 	push	{r0, r1, r2, r3, r4, r5, r6, lr}
    2504:	e1a06003 	mov	r6, r3
    2508:	e59f304c 	ldr	r3, [pc, #76]	; 255c <hmac_sha1_vector+0x5c>
    250c:	e1a0c000 	mov	ip, r0
    2510:	e1a0e001 	mov	lr, r1
    2514:	e8930003 	ldm	r3, {r0, r1}
    2518:	e28d5008 	add	r5, sp, #8
    251c:	e35c0000 	cmp	ip, #0
    2520:	e1a04002 	mov	r4, r2
    2524:	e8850003 	stm	r5, {r0, r1}
    2528:	11a0000c 	movne	r0, ip
    252c:	11a0100e 	movne	r1, lr
    2530:	11a02005 	movne	r2, r5
    2534:	1bffffa4 	blne	23cc <prepare_hmac_sha1_vector>
    2538:	e59d3024 	ldr	r3, [sp, #36]	; 0x24
    253c:	e1a00005 	mov	r0, r5
    2540:	e58d3000 	str	r3, [sp]
    2544:	e1a01004 	mov	r1, r4
    2548:	e1a02006 	mov	r2, r6
    254c:	e59d3020 	ldr	r3, [sp, #32]
    2550:	ebffffbf 	bl	2454 <exec_hmac_sha1_vector>
    2554:	e28dd010 	add	sp, sp, #16
    2558:	e8bd8070 	pop	{r4, r5, r6, pc}
    255c:	000244b8 			; <UNDEFINED> instruction: 0x000244b8

00002560 <hmac_sha1>:
    2560:	e92d401f 	push	{r0, r1, r2, r3, r4, lr}
    2564:	e58d3008 	str	r3, [sp, #8]
    2568:	e28d3008 	add	r3, sp, #8
    256c:	e58d3000 	str	r3, [sp]
    2570:	e59d3018 	ldr	r3, [sp, #24]
    2574:	e58d200c 	str	r2, [sp, #12]
    2578:	e58d3004 	str	r3, [sp, #4]
    257c:	e3a02001 	mov	r2, #1
    2580:	e28d300c 	add	r3, sp, #12
    2584:	ebffffdd 	bl	2500 <hmac_sha1_vector>
    2588:	e28dd014 	add	sp, sp, #20
    258c:	e8bd8000 	pop	{pc}

00002590 <sha1_prf>:
    2590:	e92d47f0 	push	{r4, r5, r6, r7, r8, r9, sl, lr}
    2594:	e24dd038 	sub	sp, sp, #56	; 0x38
    2598:	e1a07000 	mov	r7, r0
    259c:	e28d905c 	add	r9, sp, #92	; 0x5c
    25a0:	e3a04000 	mov	r4, #0
    25a4:	e1a00002 	mov	r0, r2
    25a8:	e1a06003 	mov	r6, r3
    25ac:	e1a05002 	mov	r5, r2
    25b0:	e8990600 	ldm	r9, {r9, sl}
    25b4:	e1a08001 	mov	r8, r1
    25b8:	e5cd4037 	strb	r4, [sp, #55]	; 0x37
    25bc:	eb006ea3 	bl	1e050 <strlen>
    25c0:	e59d3058 	ldr	r3, [sp, #88]	; 0x58
    25c4:	e58d302c 	str	r3, [sp, #44]	; 0x2c
    25c8:	e28d3037 	add	r3, sp, #55	; 0x37
    25cc:	e2800001 	add	r0, r0, #1
    25d0:	e58d3024 	str	r3, [sp, #36]	; 0x24
    25d4:	e3a03001 	mov	r3, #1
    25d8:	e58d501c 	str	r5, [sp, #28]
    25dc:	e58d6020 	str	r6, [sp, #32]
    25e0:	e58d0028 	str	r0, [sp, #40]	; 0x28
    25e4:	e58d3030 	str	r3, [sp, #48]	; 0x30
    25e8:	e1a0500a 	mov	r5, sl
    25ec:	e28d6028 	add	r6, sp, #40	; 0x28
    25f0:	ea000020 	b	2678 <sha1_prf+0xe8>
    25f4:	e3550013 	cmp	r5, #19
    25f8:	e58d6000 	str	r6, [sp]
    25fc:	9a00000e 	bls	263c <sha1_prf+0xac>
    2600:	e0893004 	add	r3, r9, r4
    2604:	e58d3004 	str	r3, [sp, #4]
    2608:	e1a00007 	mov	r0, r7
    260c:	e1a01008 	mov	r1, r8
    2610:	e3a02003 	mov	r2, #3
    2614:	e28d301c 	add	r3, sp, #28
    2618:	ebffffb8 	bl	2500 <hmac_sha1_vector>
    261c:	e3500000 	cmp	r0, #0
    2620:	e2455014 	sub	r5, r5, #20
    2624:	1a000017 	bne	2688 <sha1_prf+0xf8>
    2628:	e5dd3037 	ldrb	r3, [sp, #55]	; 0x37
    262c:	e2833001 	add	r3, r3, #1
    2630:	e2844014 	add	r4, r4, #20
    2634:	e5cd3037 	strb	r3, [sp, #55]	; 0x37
    2638:	ea00000e 	b	2678 <sha1_prf+0xe8>
    263c:	e1a00007 	mov	r0, r7
    2640:	e28d6008 	add	r6, sp, #8
    2644:	e1a01008 	mov	r1, r8
    2648:	e3a02003 	mov	r2, #3
    264c:	e28d301c 	add	r3, sp, #28
    2650:	e58d6004 	str	r6, [sp, #4]
    2654:	ebffffa9 	bl	2500 <hmac_sha1_vector>
    2658:	e2507000 	subs	r7, r0, #0
    265c:	1a000009 	bne	2688 <sha1_prf+0xf8>
    2660:	e0890004 	add	r0, r9, r4
    2664:	e1a01006 	mov	r1, r6
    2668:	e1a02005 	mov	r2, r5
    266c:	eb006ec9 	bl	1e198 <memcpy>
    2670:	e1a00007 	mov	r0, r7
    2674:	ea000004 	b	268c <sha1_prf+0xfc>
    2678:	e154000a 	cmp	r4, sl
    267c:	3affffdc 	bcc	25f4 <sha1_prf+0x64>
    2680:	e3a00000 	mov	r0, #0
    2684:	ea000000 	b	268c <sha1_prf+0xfc>
    2688:	e3e00000 	mvn	r0, #0
    268c:	e28dd038 	add	sp, sp, #56	; 0x38
    2690:	e8bd87f0 	pop	{r4, r5, r6, r7, r8, r9, sl, pc}

00002694 <get_hmac_sha1_loop_data_size>:
    2694:	e3a00f43 	mov	r0, #268	; 0x10c
    2698:	e1a0f00e 	mov	pc, lr

0000269c <init_hmac_sha1_loop>:
    269c:	e92d407f 	push	{r0, r1, r2, r3, r4, r5, r6, lr}
    26a0:	e1a06003 	mov	r6, r3
    26a4:	e280300c 	add	r3, r0, #12
    26a8:	e1a04000 	mov	r4, r0
    26ac:	e58d3008 	str	r3, [sp, #8]
    26b0:	e280308c 	add	r3, r0, #140	; 0x8c
    26b4:	e1a00001 	mov	r0, r1
    26b8:	e1a01002 	mov	r1, r2
    26bc:	e28d2008 	add	r2, sp, #8
    26c0:	e58d300c 	str	r3, [sp, #12]
    26c4:	e1a05004 	mov	r5, r4
    26c8:	ebffff3f 	bl	23cc <prepare_hmac_sha1_vector>
    26cc:	e284304c 	add	r3, r4, #76	; 0x4c
    26d0:	e4853060 	str	r3, [r5], #96	; 0x60
    26d4:	e58d3000 	str	r3, [sp]
    26d8:	e28d2020 	add	r2, sp, #32
    26dc:	e892000c 	ldm	r2, {r2, r3}
    26e0:	e1a01006 	mov	r1, r6
    26e4:	e28d0008 	add	r0, sp, #8
    26e8:	ebffff59 	bl	2454 <exec_hmac_sha1_vector>
    26ec:	e3a03000 	mov	r3, #0
    26f0:	e28410e0 	add	r1, r4, #224	; 0xe0
    26f4:	e1a02003 	mov	r2, r3
    26f8:	e7852003 	str	r2, [r5, r3]
    26fc:	e7812003 	str	r2, [r1, r3]
    2700:	e2833004 	add	r3, r3, #4
    2704:	e353002c 	cmp	r3, #44	; 0x2c
    2708:	1afffffa 	bne	26f8 <init_hmac_sha1_loop+0x5c>
    270c:	e3e0107f 	mvn	r1, #127	; 0x7f
    2710:	e3a02002 	mov	r2, #2
    2714:	e3e0305f 	mvn	r3, #95	; 0x5f
    2718:	e5c41060 	strb	r1, [r4, #96]	; 0x60
    271c:	e5c4208a 	strb	r2, [r4, #138]	; 0x8a
    2720:	e5c4308b 	strb	r3, [r4, #139]	; 0x8b
    2724:	e5c410e0 	strb	r1, [r4, #224]	; 0xe0
    2728:	e5c4210a 	strb	r2, [r4, #266]	; 0x10a
    272c:	e5c4310b 	strb	r3, [r4, #267]	; 0x10b
    2730:	e3a00000 	mov	r0, #0
    2734:	e28dd010 	add	sp, sp, #16
    2738:	e8bd8070 	pop	{r4, r5, r6, pc}

0000273c <reinit_hmac_sha1_loop>:
    273c:	e92d401f 	push	{r0, r1, r2, r3, r4, lr}
    2740:	e280c00c 	add	ip, r0, #12
    2744:	e58dc008 	str	ip, [sp, #8]
    2748:	e280c08c 	add	ip, r0, #140	; 0x8c
    274c:	e280004c 	add	r0, r0, #76	; 0x4c
    2750:	e58d0000 	str	r0, [sp]
    2754:	e28d0008 	add	r0, sp, #8
    2758:	e58dc00c 	str	ip, [sp, #12]
    275c:	ebffff3c 	bl	2454 <exec_hmac_sha1_vector>
    2760:	e28dd014 	add	sp, sp, #20
    2764:	e8bd8000 	pop	{pc}

00002768 <loop_hmac_sha1>:
    2768:	e92d4010 	push	{r4, lr}
    276c:	e1a04000 	mov	r4, r0
    2770:	e28420cc 	add	r2, r4, #204	; 0xcc
    2774:	e3a01002 	mov	r1, #2
    2778:	e280000c 	add	r0, r0, #12
    277c:	eb000021 	bl	2808 <sha1_simple_vector>
    2780:	e284008c 	add	r0, r4, #140	; 0x8c
    2784:	e3a01002 	mov	r1, #2
    2788:	e284204c 	add	r2, r4, #76	; 0x4c
    278c:	eb00001d 	bl	2808 <sha1_simple_vector>
    2790:	e3a00000 	mov	r0, #0
    2794:	e8bd8010 	pop	{r4, pc}

00002798 <stop_hmac_sha1_loop>:
    2798:	e3a00000 	mov	r0, #0
    279c:	e1a0f00e 	mov	pc, lr

000027a0 <SHA1Transform>:
    27a0:	e3a024c2 	mov	r2, #-1040187392	; 0xc2000000
    27a4:	e592c0a8 	ldr	ip, [r2, #168]	; 0xa8
    27a8:	e31c0001 	tst	ip, #1
    27ac:	e3a034c2 	mov	r3, #-1040187392	; 0xc2000000
    27b0:	1afffffb 	bne	27a4 <SHA1Transform+0x4>
    27b4:	e59320a0 	ldr	r2, [r3, #160]	; 0xa0
    27b8:	e58300a0 	str	r0, [r3, #160]	; 0xa0
    27bc:	e59320a4 	ldr	r2, [r3, #164]	; 0xa4
    27c0:	e58310a4 	str	r1, [r3, #164]	; 0xa4
    27c4:	e1a0f00e 	mov	pc, lr

000027c8 <SHA1Init>:
    27c8:	e59f3024 	ldr	r3, [pc, #36]	; 27f4 <SHA1Init+0x2c>
    27cc:	e59f1024 	ldr	r1, [pc, #36]	; 27f8 <SHA1Init+0x30>
    27d0:	e59f2024 	ldr	r2, [pc, #36]	; 27fc <SHA1Init+0x34>
    27d4:	e59fc024 	ldr	ip, [pc, #36]	; 2800 <SHA1Init+0x38>
    27d8:	e880100e 	stm	r0, {r1, r2, r3, ip}
    27dc:	e59f3020 	ldr	r3, [pc, #32]	; 2804 <SHA1Init+0x3c>
    27e0:	e5803010 	str	r3, [r0, #16]
    27e4:	e3a03000 	mov	r3, #0
    27e8:	e5803018 	str	r3, [r0, #24]
    27ec:	e5803014 	str	r3, [r0, #20]
    27f0:	e1a0f00e 	mov	pc, lr
    27f4:	98badcfe 	ldmls	sl!, {r1, r2, r3, r4, r5, r6, r7, sl, fp, ip, lr, pc}
    27f8:	67452301 	strbvs	r2, [r5, -r1, lsl #6]
    27fc:	efcdab89 	svc	0x00cdab89
    2800:	10325476 	eorsne	r5, r2, r6, ror r4
    2804:	c3d2e1f0 	bicsgt	lr, r2, #60	; 0x3c

00002808 <sha1_simple_vector>:
    2808:	e92d41f0 	push	{r4, r5, r6, r7, r8, lr}
    280c:	e24dd060 	sub	sp, sp, #96	; 0x60
    2810:	e28d8004 	add	r8, sp, #4
    2814:	e1a04000 	mov	r4, r0
    2818:	e1a00008 	mov	r0, r8
    281c:	e1a05001 	mov	r5, r1
    2820:	e1a07002 	mov	r7, r2
    2824:	e3a06000 	mov	r6, #0
    2828:	ebffffe6 	bl	27c8 <SHA1Init>
    282c:	ea000004 	b	2844 <sha1_simple_vector+0x3c>
    2830:	e1a01004 	mov	r1, r4
    2834:	e1a00008 	mov	r0, r8
    2838:	ebffffd8 	bl	27a0 <SHA1Transform>
    283c:	e2866001 	add	r6, r6, #1
    2840:	e2844040 	add	r4, r4, #64	; 0x40
    2844:	e1560005 	cmp	r6, r5
    2848:	1afffff8 	bne	2830 <sha1_simple_vector+0x28>
    284c:	e3a024c2 	mov	r2, #-1040187392	; 0xc2000000
    2850:	e59230a8 	ldr	r3, [r2, #168]	; 0xa8
    2854:	e2133001 	ands	r3, r3, #1
    2858:	1afffffc 	bne	2850 <sha1_simple_vector+0x48>
    285c:	e1a02007 	mov	r2, r7
    2860:	e28d1004 	add	r1, sp, #4
    2864:	e7931001 	ldr	r1, [r3, r1]
    2868:	e1a00c21 	lsr	r0, r1, #24
    286c:	e7c70003 	strb	r0, [r7, r3]
    2870:	e1a00821 	lsr	r0, r1, #16
    2874:	e2833004 	add	r3, r3, #4
    2878:	e5c20001 	strb	r0, [r2, #1]
    287c:	e3530014 	cmp	r3, #20
    2880:	e1a00421 	lsr	r0, r1, #8
    2884:	e5c20002 	strb	r0, [r2, #2]
    2888:	e5c21003 	strb	r1, [r2, #3]
    288c:	e2822004 	add	r2, r2, #4
    2890:	1afffff2 	bne	2860 <sha1_simple_vector+0x58>
    2894:	e3a00000 	mov	r0, #0
    2898:	e28dd060 	add	sp, sp, #96	; 0x60
    289c:	e8bd81f0 	pop	{r4, r5, r6, r7, r8, pc}

000028a0 <SHA1Update>:
    28a0:	e92d40f8 	push	{r3, r4, r5, r6, r7, lr}
    28a4:	e1a06002 	mov	r6, r2
    28a8:	e5902014 	ldr	r2, [r0, #20]
    28ac:	e1a03186 	lsl	r3, r6, #3
    28b0:	e1a04000 	mov	r4, r0
    28b4:	e1a001a2 	lsr	r0, r2, #3
    28b8:	e0832002 	add	r2, r3, r2
    28bc:	e1520003 	cmp	r2, r3
    28c0:	35943018 	ldrcc	r3, [r4, #24]
    28c4:	32833001 	addcc	r3, r3, #1
    28c8:	35843018 	strcc	r3, [r4, #24]
    28cc:	e5943018 	ldr	r3, [r4, #24]
    28d0:	e200003f 	and	r0, r0, #63	; 0x3f
    28d4:	e0833ea6 	add	r3, r3, r6, lsr #29
    28d8:	e5843018 	str	r3, [r4, #24]
    28dc:	e0863000 	add	r3, r6, r0
    28e0:	e353003f 	cmp	r3, #63	; 0x3f
    28e4:	e1a07001 	mov	r7, r1
    28e8:	e5842014 	str	r2, [r4, #20]
    28ec:	93a05000 	movls	r5, #0
    28f0:	9a000013 	bls	2944 <SHA1Update+0xa4>
    28f4:	e3500000 	cmp	r0, #0
    28f8:	01a05000 	moveq	r5, r0
    28fc:	0a00000c 	beq	2934 <SHA1Update+0x94>
    2900:	e2605040 	rsb	r5, r0, #64	; 0x40
    2904:	e0840000 	add	r0, r4, r0
    2908:	e1a02005 	mov	r2, r5
    290c:	e280001c 	add	r0, r0, #28
    2910:	eb006e20 	bl	1e198 <memcpy>
    2914:	e1a00004 	mov	r0, r4
    2918:	e284101c 	add	r1, r4, #28
    291c:	ebffff9f 	bl	27a0 <SHA1Transform>
    2920:	ea000003 	b	2934 <SHA1Update+0x94>
    2924:	e0871005 	add	r1, r7, r5
    2928:	e1a00004 	mov	r0, r4
    292c:	ebffff9b 	bl	27a0 <SHA1Transform>
    2930:	e2855040 	add	r5, r5, #64	; 0x40
    2934:	e285303f 	add	r3, r5, #63	; 0x3f
    2938:	e1530006 	cmp	r3, r6
    293c:	3afffff8 	bcc	2924 <SHA1Update+0x84>
    2940:	e3a00000 	mov	r0, #0
    2944:	e0562005 	subs	r2, r6, r5
    2948:	08bd80f8 	popeq	{r3, r4, r5, r6, r7, pc}
    294c:	e0840000 	add	r0, r4, r0
    2950:	e280001c 	add	r0, r0, #28
    2954:	e0871005 	add	r1, r7, r5
    2958:	e8bd40f8 	pop	{r3, r4, r5, r6, r7, lr}
    295c:	ea006e0d 	b	1e198 <memcpy>

00002960 <SHA1Final>:
    2960:	e5912014 	ldr	r2, [r1, #20]
    2964:	e1a021a2 	lsr	r2, r2, #3
    2968:	e2622037 	rsb	r2, r2, #55	; 0x37
    296c:	e202203f 	and	r2, r2, #63	; 0x3f
    2970:	e92d4073 	push	{r0, r1, r4, r5, r6, lr}
    2974:	e2822001 	add	r2, r2, #1
    2978:	e1a06000 	mov	r6, r0
    297c:	e1a04001 	mov	r4, r1
    2980:	e3a05000 	mov	r5, #0
    2984:	e3550003 	cmp	r5, #3
    2988:	93a01014 	movls	r1, #20
    298c:	83a01010 	movhi	r1, #16
    2990:	e1e03005 	mvn	r3, r5
    2994:	e0841001 	add	r1, r4, r1
    2998:	e2033003 	and	r3, r3, #3
    299c:	e5911004 	ldr	r1, [r1, #4]
    29a0:	e1a03183 	lsl	r3, r3, #3
    29a4:	e1a03331 	lsr	r3, r1, r3
    29a8:	e7cd3005 	strb	r3, [sp, r5]
    29ac:	e2855001 	add	r5, r5, #1
    29b0:	e3550008 	cmp	r5, #8
    29b4:	1afffff2 	bne	2984 <SHA1Final+0x24>
    29b8:	e1a00004 	mov	r0, r4
    29bc:	e59f1064 	ldr	r1, [pc, #100]	; 2a28 <SHA1Final+0xc8>
    29c0:	ebffffb6 	bl	28a0 <SHA1Update>
    29c4:	e1a02005 	mov	r2, r5
    29c8:	e1a00004 	mov	r0, r4
    29cc:	e1a0100d 	mov	r1, sp
    29d0:	ebffffb2 	bl	28a0 <SHA1Update>
    29d4:	e3a024c2 	mov	r2, #-1040187392	; 0xc2000000
    29d8:	e59230a8 	ldr	r3, [r2, #168]	; 0xa8
    29dc:	e2133001 	ands	r3, r3, #1
    29e0:	1afffffc 	bne	29d8 <SHA1Final+0x78>
    29e4:	e1a02006 	mov	r2, r6
    29e8:	e7941003 	ldr	r1, [r4, r3]
    29ec:	e1a01c21 	lsr	r1, r1, #24
    29f0:	e7c61003 	strb	r1, [r6, r3]
    29f4:	e7941003 	ldr	r1, [r4, r3]
    29f8:	e1a01821 	lsr	r1, r1, #16
    29fc:	e5c21001 	strb	r1, [r2, #1]
    2a00:	e7941003 	ldr	r1, [r4, r3]
    2a04:	e1a01421 	lsr	r1, r1, #8
    2a08:	e5c21002 	strb	r1, [r2, #2]
    2a0c:	e7941003 	ldr	r1, [r4, r3]
    2a10:	e2833004 	add	r3, r3, #4
    2a14:	e3530014 	cmp	r3, #20
    2a18:	e5c21003 	strb	r1, [r2, #3]
    2a1c:	e2822004 	add	r2, r2, #4
    2a20:	1afffff0 	bne	29e8 <SHA1Final+0x88>
    2a24:	e8bd807c 	pop	{r2, r3, r4, r5, r6, pc}
    2a28:	000244c0 	andeq	r4, r2, r0, asr #9

00002a2c <sha1_vector>:
    2a2c:	e92d47f0 	push	{r4, r5, r6, r7, r8, r9, sl, lr}
    2a30:	e24dd060 	sub	sp, sp, #96	; 0x60
    2a34:	e28d8004 	add	r8, sp, #4
    2a38:	e1a05000 	mov	r5, r0
    2a3c:	e3a06000 	mov	r6, #0
    2a40:	e1a00008 	mov	r0, r8
    2a44:	e1a04001 	mov	r4, r1
    2a48:	e1a09002 	mov	r9, r2
    2a4c:	e1a0a003 	mov	sl, r3
    2a50:	e1a07006 	mov	r7, r6
    2a54:	ebffff5b 	bl	27c8 <SHA1Init>
    2a58:	ea000005 	b	2a74 <sha1_vector+0x48>
    2a5c:	e7941006 	ldr	r1, [r4, r6]
    2a60:	e7992006 	ldr	r2, [r9, r6]
    2a64:	e1a00008 	mov	r0, r8
    2a68:	ebffff8c 	bl	28a0 <SHA1Update>
    2a6c:	e2877001 	add	r7, r7, #1
    2a70:	e2866004 	add	r6, r6, #4
    2a74:	e1570005 	cmp	r7, r5
    2a78:	1afffff7 	bne	2a5c <sha1_vector+0x30>
    2a7c:	e1a0000a 	mov	r0, sl
    2a80:	e1a01008 	mov	r1, r8
    2a84:	ebffffb5 	bl	2960 <SHA1Final>
    2a88:	e3a00000 	mov	r0, #0
    2a8c:	e28dd060 	add	sp, sp, #96	; 0x60
    2a90:	e8bd87f0 	pop	{r4, r5, r6, r7, r8, r9, sl, pc}

00002a94 <init_pbkdf2_sha1_calc>:
    2a94:	e92d4ff0 	push	{r4, r5, r6, r7, r8, r9, sl, fp, lr}
    2a98:	e24dd014 	sub	sp, sp, #20
    2a9c:	e1a09001 	mov	r9, r1
    2aa0:	e1a0b002 	mov	fp, r2
    2aa4:	e1a0a003 	mov	sl, r3
    2aa8:	e58d000c 	str	r0, [sp, #12]
    2aac:	eb006d67 	bl	1e050 <strlen>
    2ab0:	e1a08000 	mov	r8, r0
    2ab4:	ebfffef6 	bl	2694 <get_hmac_sha1_loop_data_size>
    2ab8:	e3a01000 	mov	r1, #0
    2abc:	e2800070 	add	r0, r0, #112	; 0x70
    2ac0:	e3a02002 	mov	r2, #2
    2ac4:	eb004741 	bl	147d0 <PBUF_MAlloc_Raw>
    2ac8:	e2504000 	subs	r4, r0, #0
    2acc:	e59dc00c 	ldr	ip, [sp, #12]
    2ad0:	0a000020 	beq	2b58 <init_pbkdf2_sha1_calc+0xc4>
    2ad4:	e3a03001 	mov	r3, #1
    2ad8:	e3a05000 	mov	r5, #0
    2adc:	e5845030 	str	r5, [r4, #48]	; 0x30
    2ae0:	e584304c 	str	r3, [r4, #76]	; 0x4c
    2ae4:	e5c43033 	strb	r3, [r4, #51]	; 0x33
    2ae8:	e5843050 	str	r3, [r4, #80]	; 0x50
    2aec:	e5843054 	str	r3, [r4, #84]	; 0x54
    2af0:	e3a02004 	mov	r2, #4
    2af4:	e2843034 	add	r3, r4, #52	; 0x34
    2af8:	e2846030 	add	r6, r4, #48	; 0x30
    2afc:	e5842040 	str	r2, [r4, #64]	; 0x40
    2b00:	e5849034 	str	r9, [r4, #52]	; 0x34
    2b04:	e5846038 	str	r6, [r4, #56]	; 0x38
    2b08:	e584b03c 	str	fp, [r4, #60]	; 0x3c
    2b0c:	e584a048 	str	sl, [r4, #72]	; 0x48
    2b10:	e5845058 	str	r5, [r4, #88]	; 0x58
    2b14:	e2847070 	add	r7, r4, #112	; 0x70
    2b18:	e58d3000 	str	r3, [sp]
    2b1c:	e284303c 	add	r3, r4, #60	; 0x3c
    2b20:	e58d3004 	str	r3, [sp, #4]
    2b24:	e1a00007 	mov	r0, r7
    2b28:	e3a03002 	mov	r3, #2
    2b2c:	e1a0100c 	mov	r1, ip
    2b30:	e1a02008 	mov	r2, r8
    2b34:	ebfffed8 	bl	269c <init_hmac_sha1_loop>
    2b38:	e5847044 	str	r7, [r4, #68]	; 0x44
    2b3c:	e5943070 	ldr	r3, [r4, #112]	; 0x70
    2b40:	e7932005 	ldr	r2, [r3, r5]
    2b44:	e7842005 	str	r2, [r4, r5]
    2b48:	e2855004 	add	r5, r5, #4
    2b4c:	e3550014 	cmp	r5, #20
    2b50:	1afffffa 	bne	2b40 <init_pbkdf2_sha1_calc+0xac>
    2b54:	e5846028 	str	r6, [r4, #40]	; 0x28
    2b58:	e1a00004 	mov	r0, r4
    2b5c:	e28dd014 	add	sp, sp, #20
    2b60:	e8bd8ff0 	pop	{r4, r5, r6, r7, r8, r9, sl, fp, pc}

00002b64 <pbkdf2_sha1_calc_func>:
    2b64:	e92d4ff7 	push	{r0, r1, r2, r4, r5, r6, r7, r8, r9, sl, fp, lr}
    2b68:	e1a06000 	mov	r6, r0
    2b6c:	e1a0a001 	mov	sl, r1
    2b70:	e3a09014 	mov	r9, #20
    2b74:	e5964028 	ldr	r4, [r6, #40]	; 0x28
    2b78:	e5943014 	ldr	r3, [r4, #20]
    2b7c:	e5942028 	ldr	r2, [r4, #40]	; 0x28
    2b80:	e5937000 	ldr	r7, [r3]
    2b84:	e0226299 	mla	r2, r9, r2, r6
    2b88:	e594b020 	ldr	fp, [r4, #32]
    2b8c:	e5945024 	ldr	r5, [r4, #36]	; 0x24
    2b90:	ea00000d 	b	2bcc <pbkdf2_sha1_calc_func+0x68>
    2b94:	e1a00003 	mov	r0, r3
    2b98:	e88d000c 	stm	sp, {r2, r3}
    2b9c:	ebfffef1 	bl	2768 <loop_hmac_sha1>
    2ba0:	e89d000c 	ldm	sp, {r2, r3}
    2ba4:	e3a01000 	mov	r1, #0
    2ba8:	e792c001 	ldr	ip, [r2, r1]
    2bac:	e7970001 	ldr	r0, [r7, r1]
    2bb0:	e02c0000 	eor	r0, ip, r0
    2bb4:	e7820001 	str	r0, [r2, r1]
    2bb8:	e2811004 	add	r1, r1, #4
    2bbc:	e3510014 	cmp	r1, #20
    2bc0:	1afffff8 	bne	2ba8 <pbkdf2_sha1_calc_func+0x44>
    2bc4:	e28bb001 	add	fp, fp, #1
    2bc8:	e2855001 	add	r5, r5, #1
    2bcc:	e5941018 	ldr	r1, [r4, #24]
    2bd0:	e155000a 	cmp	r5, sl
    2bd4:	315b0001 	cmpcc	fp, r1
    2bd8:	23a08000 	movcs	r8, #0
    2bdc:	33a08001 	movcc	r8, #1
    2be0:	3affffeb 	bcc	2b94 <pbkdf2_sha1_calc_func+0x30>
    2be4:	e15b0001 	cmp	fp, r1
    2be8:	3584b020 	strcc	fp, [r4, #32]
    2bec:	35848024 	strcc	r8, [r4, #36]	; 0x24
    2bf0:	3a00001e 	bcc	2c70 <pbkdf2_sha1_calc_func+0x10c>
    2bf4:	e5942028 	ldr	r2, [r4, #40]	; 0x28
    2bf8:	e594101c 	ldr	r1, [r4, #28]
    2bfc:	e1520001 	cmp	r2, r1
    2c00:	1a000003 	bne	2c14 <pbkdf2_sha1_calc_func+0xb0>
    2c04:	e1a00003 	mov	r0, r3
    2c08:	ebfffee2 	bl	2798 <stop_hmac_sha1_loop>
    2c0c:	e1a00008 	mov	r0, r8
    2c10:	ea00001a 	b	2c80 <pbkdf2_sha1_calc_func+0x11c>
    2c14:	e2822001 	add	r2, r2, #1
    2c18:	e5842028 	str	r2, [r4, #40]	; 0x28
    2c1c:	e3a02002 	mov	r2, #2
    2c20:	e5c42003 	strb	r2, [r4, #3]
    2c24:	e3a02001 	mov	r2, #1
    2c28:	e5842020 	str	r2, [r4, #32]
    2c2c:	e1a00003 	mov	r0, r3
    2c30:	e3a01002 	mov	r1, #2
    2c34:	e284300c 	add	r3, r4, #12
    2c38:	e2842004 	add	r2, r4, #4
    2c3c:	ebfffebe 	bl	273c <reinit_hmac_sha1_loop>
    2c40:	e5943028 	ldr	r3, [r4, #40]	; 0x28
    2c44:	e0236399 	mla	r3, r9, r3, r6
    2c48:	e2855001 	add	r5, r5, #1
    2c4c:	e7972008 	ldr	r2, [r7, r8]
    2c50:	e7832008 	str	r2, [r3, r8]
    2c54:	e2888004 	add	r8, r8, #4
    2c58:	e3580014 	cmp	r8, #20
    2c5c:	1afffffa 	bne	2c4c <pbkdf2_sha1_calc_func+0xe8>
    2c60:	e155000a 	cmp	r5, sl
    2c64:	1a000003 	bne	2c78 <pbkdf2_sha1_calc_func+0x114>
    2c68:	e3a03000 	mov	r3, #0
    2c6c:	e5843024 	str	r3, [r4, #36]	; 0x24
    2c70:	e3a00001 	mov	r0, #1
    2c74:	ea000001 	b	2c80 <pbkdf2_sha1_calc_func+0x11c>
    2c78:	e5845024 	str	r5, [r4, #36]	; 0x24
    2c7c:	eaffffbc 	b	2b74 <pbkdf2_sha1_calc_func+0x10>
    2c80:	e8bd8ffe 	pop	{r1, r2, r3, r4, r5, r6, r7, r8, r9, sl, fp, pc}

00002c84 <deinit_pbkdf2_sha1_calc>:
    2c84:	e3500000 	cmp	r0, #0
    2c88:	01a0f00e 	moveq	pc, lr
    2c8c:	ea0046e7 	b	14830 <_PBUF_MFree>

00002c90 <wpa_drv_set_countermeasures>:
    2c90:	e3e00000 	mvn	r0, #0
    2c94:	e1a0f00e 	mov	pc, lr

00002c98 <wpa_drv_get_bssid>:
    2c98:	e92d4038 	push	{r3, r4, r5, lr}
    2c9c:	e2804010 	add	r4, r0, #16
    2ca0:	e1a05001 	mov	r5, r1
    2ca4:	e1a00004 	mov	r0, r4
    2ca8:	eb005bc4 	bl	19bc0 <drv_mac_get_bssid>
    2cac:	e3550000 	cmp	r5, #0
    2cb0:	11a00005 	movne	r0, r5
    2cb4:	11a01004 	movne	r1, r4
    2cb8:	13a02006 	movne	r2, #6
    2cbc:	1b006d35 	blne	1e198 <memcpy>
    2cc0:	e3a00001 	mov	r0, #1
    2cc4:	e8bd8038 	pop	{r3, r4, r5, pc}

00002cc8 <wpa_drv_get_ssid>:
    2cc8:	e92d4010 	push	{r4, lr}
    2ccc:	e1a04000 	mov	r4, r0
    2cd0:	e1a00001 	mov	r0, r1
    2cd4:	e5941018 	ldr	r1, [r4, #24]
    2cd8:	e3510000 	cmp	r1, #0
    2cdc:	0a000005 	beq	2cf8 <wpa_drv_get_ssid+0x30>
    2ce0:	e3500000 	cmp	r0, #0
    2ce4:	15d12020 	ldrbne	r2, [r1, #32]
    2ce8:	1b006d2a 	blne	1e198 <memcpy>
    2cec:	e5943018 	ldr	r3, [r4, #24]
    2cf0:	e5d30020 	ldrb	r0, [r3, #32]
    2cf4:	e8bd8010 	pop	{r4, pc}
    2cf8:	e1a00001 	mov	r0, r1
    2cfc:	e8bd8010 	pop	{r4, pc}

00002d00 <sram_del_key>:
    2d00:	e92d40f8 	push	{r3, r4, r5, r6, r7, lr}
    2d04:	e2514000 	subs	r4, r1, #0
    2d08:	e1a07000 	mov	r7, r0
    2d0c:	e59f50fc 	ldr	r5, [pc, #252]	; 2e10 <sram_del_key+0x110>
    2d10:	0a000020 	beq	2d98 <sram_del_key+0x98>
    2d14:	e3a03030 	mov	r3, #48	; 0x30
    2d18:	e2444001 	sub	r4, r4, #1
    2d1c:	e0040493 	mul	r4, r3, r4
    2d20:	e5950000 	ldr	r0, [r5]
    2d24:	e3a01000 	mov	r1, #0
    2d28:	e0800004 	add	r0, r0, r4
    2d2c:	e3a02020 	mov	r2, #32
    2d30:	eb006cdf 	bl	1e0b4 <memset>
    2d34:	e5951000 	ldr	r1, [r5]
    2d38:	e3a06034 	mov	r6, #52	; 0x34
    2d3c:	e0271796 	mla	r7, r6, r7, r1
    2d40:	e3a03000 	mov	r3, #0
    2d44:	e0814004 	add	r4, r1, r4
    2d48:	e5c43020 	strb	r3, [r4, #32]
    2d4c:	e5c43021 	strb	r3, [r4, #33]	; 0x21
    2d50:	e5c43022 	strb	r3, [r4, #34]	; 0x22
    2d54:	e5c43023 	strb	r3, [r4, #35]	; 0x23
    2d58:	e5c43024 	strb	r3, [r4, #36]	; 0x24
    2d5c:	e5c43025 	strb	r3, [r4, #37]	; 0x25
    2d60:	e5c43026 	strb	r3, [r4, #38]	; 0x26
    2d64:	e5c43027 	strb	r3, [r4, #39]	; 0x27
    2d68:	e5c43028 	strb	r3, [r4, #40]	; 0x28
    2d6c:	e5c43029 	strb	r3, [r4, #41]	; 0x29
    2d70:	e5c4302a 	strb	r3, [r4, #42]	; 0x2a
    2d74:	e5c4302b 	strb	r3, [r4, #43]	; 0x2b
    2d78:	e5c4302c 	strb	r3, [r4, #44]	; 0x2c
    2d7c:	e5c4302d 	strb	r3, [r4, #45]	; 0x2d
    2d80:	e5c4302e 	strb	r3, [r4, #46]	; 0x2e
    2d84:	e5c4302f 	strb	r3, [r4, #47]	; 0x2f
    2d88:	e5d73090 	ldrb	r3, [r7, #144]	; 0x90
    2d8c:	e3c330f0 	bic	r3, r3, #240	; 0xf0
    2d90:	e5c73090 	strb	r3, [r7, #144]	; 0x90
    2d94:	ea00001b 	b	2e08 <sram_del_key+0x108>
    2d98:	e3a06034 	mov	r6, #52	; 0x34
    2d9c:	e0060690 	mul	r6, r0, r6
    2da0:	e5950000 	ldr	r0, [r5]
    2da4:	e0800006 	add	r0, r0, r6
    2da8:	e2800094 	add	r0, r0, #148	; 0x94
    2dac:	e3a02020 	mov	r2, #32
    2db0:	eb006cbf 	bl	1e0b4 <memset>
    2db4:	e5953000 	ldr	r3, [r5]
    2db8:	e0836006 	add	r6, r3, r6
    2dbc:	e5d63090 	ldrb	r3, [r6, #144]	; 0x90
    2dc0:	e3c3300f 	bic	r3, r3, #15
    2dc4:	e5c640b4 	strb	r4, [r6, #180]	; 0xb4
    2dc8:	e5c640b5 	strb	r4, [r6, #181]	; 0xb5
    2dcc:	e5c640b6 	strb	r4, [r6, #182]	; 0xb6
    2dd0:	e5c640b7 	strb	r4, [r6, #183]	; 0xb7
    2dd4:	e5c640b8 	strb	r4, [r6, #184]	; 0xb8
    2dd8:	e5c640b9 	strb	r4, [r6, #185]	; 0xb9
    2ddc:	e5c640ba 	strb	r4, [r6, #186]	; 0xba
    2de0:	e5c640bb 	strb	r4, [r6, #187]	; 0xbb
    2de4:	e5c640bc 	strb	r4, [r6, #188]	; 0xbc
    2de8:	e5c640bd 	strb	r4, [r6, #189]	; 0xbd
    2dec:	e5c640be 	strb	r4, [r6, #190]	; 0xbe
    2df0:	e5c640bf 	strb	r4, [r6, #191]	; 0xbf
    2df4:	e5c640c0 	strb	r4, [r6, #192]	; 0xc0
    2df8:	e5c640c1 	strb	r4, [r6, #193]	; 0xc1
    2dfc:	e5c640c2 	strb	r4, [r6, #194]	; 0xc2
    2e00:	e5c640c3 	strb	r4, [r6, #195]	; 0xc3
    2e04:	e5c63090 	strb	r3, [r6, #144]	; 0x90
    2e08:	e3a00001 	mov	r0, #1
    2e0c:	e8bd80f8 	pop	{r3, r4, r5, r6, r7, pc}
    2e10:	0002bed0 	ldrdeq	fp, [r2], -r0

00002e14 <sram_set_key>:
    2e14:	e92d40f8 	push	{r3, r4, r5, r6, r7, lr}
    2e18:	e2515000 	subs	r5, r1, #0
    2e1c:	e1a04000 	mov	r4, r0
    2e20:	e59f6118 	ldr	r6, [pc, #280]	; 2f40 <sram_set_key+0x12c>
    2e24:	0a000024 	beq	2ebc <sram_set_key+0xa8>
    2e28:	e2451001 	sub	r1, r5, #1
    2e2c:	e3a07030 	mov	r7, #48	; 0x30
    2e30:	e0070791 	mul	r7, r1, r7
    2e34:	e5960000 	ldr	r0, [r6]
    2e38:	e1a03803 	lsl	r3, r3, #16
    2e3c:	e1a01002 	mov	r1, r2
    2e40:	e0800007 	add	r0, r0, r7
    2e44:	e1a02823 	lsr	r2, r3, #16
    2e48:	eb006cd2 	bl	1e198 <memcpy>
    2e4c:	e5961000 	ldr	r1, [r6]
    2e50:	e3a03000 	mov	r3, #0
    2e54:	e0817007 	add	r7, r1, r7
    2e58:	e5c73021 	strb	r3, [r7, #33]	; 0x21
    2e5c:	e5c73022 	strb	r3, [r7, #34]	; 0x22
    2e60:	e5c73023 	strb	r3, [r7, #35]	; 0x23
    2e64:	e5c73024 	strb	r3, [r7, #36]	; 0x24
    2e68:	e5c73025 	strb	r3, [r7, #37]	; 0x25
    2e6c:	e5c73026 	strb	r3, [r7, #38]	; 0x26
    2e70:	e5c73027 	strb	r3, [r7, #39]	; 0x27
    2e74:	e5c73028 	strb	r3, [r7, #40]	; 0x28
    2e78:	e5c73029 	strb	r3, [r7, #41]	; 0x29
    2e7c:	e5c7302a 	strb	r3, [r7, #42]	; 0x2a
    2e80:	e5c7302b 	strb	r3, [r7, #43]	; 0x2b
    2e84:	e5c7302c 	strb	r3, [r7, #44]	; 0x2c
    2e88:	e5c7302d 	strb	r3, [r7, #45]	; 0x2d
    2e8c:	e5c7302e 	strb	r3, [r7, #46]	; 0x2e
    2e90:	e5c7302f 	strb	r3, [r7, #47]	; 0x2f
    2e94:	e3a03034 	mov	r3, #52	; 0x34
    2e98:	e0241493 	mla	r4, r3, r4, r1
    2e9c:	e3a00001 	mov	r0, #1
    2ea0:	e5c70020 	strb	r0, [r7, #32]
    2ea4:	e5d43090 	ldrb	r3, [r4, #144]	; 0x90
    2ea8:	e205500f 	and	r5, r5, #15
    2eac:	e3c330f0 	bic	r3, r3, #240	; 0xf0
    2eb0:	e1835205 	orr	r5, r3, r5, lsl #4
    2eb4:	e5c45090 	strb	r5, [r4, #144]	; 0x90
    2eb8:	ea00001e 	b	2f38 <sram_set_key+0x124>
    2ebc:	e3a01034 	mov	r1, #52	; 0x34
    2ec0:	e0040491 	mul	r4, r1, r4
    2ec4:	e5960000 	ldr	r0, [r6]
    2ec8:	e1a03803 	lsl	r3, r3, #16
    2ecc:	e0800004 	add	r0, r0, r4
    2ed0:	e1a01002 	mov	r1, r2
    2ed4:	e2800094 	add	r0, r0, #148	; 0x94
    2ed8:	e1a02823 	lsr	r2, r3, #16
    2edc:	eb006cad 	bl	1e198 <memcpy>
    2ee0:	e5963000 	ldr	r3, [r6]
    2ee4:	e0834004 	add	r4, r3, r4
    2ee8:	e5d43090 	ldrb	r3, [r4, #144]	; 0x90
    2eec:	e3a02001 	mov	r2, #1
    2ef0:	e3c3300f 	bic	r3, r3, #15
    2ef4:	e5c420b4 	strb	r2, [r4, #180]	; 0xb4
    2ef8:	e5c450b5 	strb	r5, [r4, #181]	; 0xb5
    2efc:	e5c450b6 	strb	r5, [r4, #182]	; 0xb6
    2f00:	e5c450b7 	strb	r5, [r4, #183]	; 0xb7
    2f04:	e5c450b8 	strb	r5, [r4, #184]	; 0xb8
    2f08:	e5c450b9 	strb	r5, [r4, #185]	; 0xb9
    2f0c:	e5c450ba 	strb	r5, [r4, #186]	; 0xba
    2f10:	e5c450bb 	strb	r5, [r4, #187]	; 0xbb
    2f14:	e5c450bc 	strb	r5, [r4, #188]	; 0xbc
    2f18:	e5c450bd 	strb	r5, [r4, #189]	; 0xbd
    2f1c:	e5c450be 	strb	r5, [r4, #190]	; 0xbe
    2f20:	e5c450bf 	strb	r5, [r4, #191]	; 0xbf
    2f24:	e5c450c0 	strb	r5, [r4, #192]	; 0xc0
    2f28:	e5c450c1 	strb	r5, [r4, #193]	; 0xc1
    2f2c:	e5c450c2 	strb	r5, [r4, #194]	; 0xc2
    2f30:	e5c450c3 	strb	r5, [r4, #195]	; 0xc3
    2f34:	e5c43090 	strb	r3, [r4, #144]	; 0x90
    2f38:	e3a00001 	mov	r0, #1
    2f3c:	e8bd80f8 	pop	{r3, r4, r5, r6, r7, pc}
    2f40:	0002bed0 	ldrdeq	fp, [r2], -r0

00002f44 <srame_get_rx_pn>:
    2f44:	e3a00001 	mov	r0, #1
    2f48:	e1a0f00e 	mov	pc, lr

00002f4c <sram_set_wep>:
    2f4c:	e92d4010 	push	{r4, lr}
    2f50:	e3a04034 	mov	r4, #52	; 0x34
    2f54:	e0040490 	mul	r4, r0, r4
    2f58:	e1a0c001 	mov	ip, r1
    2f5c:	e1a01002 	mov	r1, r2
    2f60:	e59f2038 	ldr	r2, [pc, #56]	; 2fa0 <sram_set_wep+0x54>
    2f64:	e5922000 	ldr	r2, [r2]
    2f68:	e20ce00f 	and	lr, ip, #15
    2f6c:	e0820004 	add	r0, r2, r4
    2f70:	e35c0000 	cmp	ip, #0
    2f74:	e18ee20e 	orr	lr, lr, lr, lsl #4
    2f78:	e5c0e090 	strb	lr, [r0, #144]	; 0x90
    2f7c:	00824004 	addeq	r4, r2, r4
    2f80:	124cc001 	subne	ip, ip, #1
    2f84:	13a00030 	movne	r0, #48	; 0x30
    2f88:	1020209c 	mlane	r0, ip, r0, r2
    2f8c:	02840094 	addeq	r0, r4, #148	; 0x94
    2f90:	e1a02003 	mov	r2, r3
    2f94:	eb006c7f 	bl	1e198 <memcpy>
    2f98:	e3a00001 	mov	r0, #1
    2f9c:	e8bd8010 	pop	{r4, pc}
    2fa0:	0002bed0 	ldrdeq	fp, [r2], -r0

00002fa4 <wpa_drv_set_key>:
    2fa4:	e92d45f0 	push	{r4, r5, r6, r7, r8, sl, lr}
    2fa8:	e2528000 	subs	r8, r2, #0
    2fac:	e24dd034 	sub	sp, sp, #52	; 0x34
    2fb0:	e1a04003 	mov	r4, r3
    2fb4:	e1a05001 	mov	r5, r1
    2fb8:	e59d705c 	ldr	r7, [sp, #92]	; 0x5c
    2fbc:	e59d6060 	ldr	r6, [sp, #96]	; 0x60
    2fc0:	03a0300f 	moveq	r3, #15
    2fc4:	0a00000d 	beq	3000 <wpa_drv_set_key+0x5c>
    2fc8:	e5d82001 	ldrb	r2, [r8, #1]
    2fcc:	e5d83000 	ldrb	r3, [r8]
    2fd0:	e0023003 	and	r3, r2, r3
    2fd4:	e5d82002 	ldrb	r2, [r8, #2]
    2fd8:	e0033002 	and	r3, r3, r2
    2fdc:	e5d82003 	ldrb	r2, [r8, #3]
    2fe0:	e0033002 	and	r3, r3, r2
    2fe4:	e5d82004 	ldrb	r2, [r8, #4]
    2fe8:	e0033002 	and	r3, r3, r2
    2fec:	e5d82005 	ldrb	r2, [r8, #5]
    2ff0:	e0033002 	and	r3, r3, r2
    2ff4:	e35300ff 	cmp	r3, #255	; 0xff
    2ff8:	03a0300e 	moveq	r3, #14
    2ffc:	13a03000 	movne	r3, #0
    3000:	e3550000 	cmp	r5, #0
    3004:	1a00002e 	bne	30c4 <wpa_drv_set_key+0x120>
    3008:	e353000f 	cmp	r3, #15
    300c:	0a000013 	beq	3060 <wpa_drv_set_key+0xbc>
    3010:	e28d1004 	add	r1, sp, #4
    3014:	e1a00005 	mov	r0, r5
    3018:	e28d6008 	add	r6, sp, #8
    301c:	eb005b2d 	bl	19cd8 <drv_mac_get_wsid_table>
    3020:	e1a00006 	mov	r0, r6
    3024:	e1a01008 	mov	r1, r8
    3028:	e3a02006 	mov	r2, #6
    302c:	eb006c61 	bl	1e1b8 <memcmp>
    3030:	e3500000 	cmp	r0, #0
    3034:	0a000019 	beq	30a0 <wpa_drv_set_key+0xfc>
    3038:	e28d1004 	add	r1, sp, #4
    303c:	e3a00001 	mov	r0, #1
    3040:	eb005b24 	bl	19cd8 <drv_mac_get_wsid_table>
    3044:	e1a00006 	mov	r0, r6
    3048:	e1a01008 	mov	r1, r8
    304c:	e3a02006 	mov	r2, #6
    3050:	eb006c58 	bl	1e1b8 <memcmp>
    3054:	e3500000 	cmp	r0, #0
    3058:	1a00007d 	bne	3254 <wpa_drv_set_key+0x2b0>
    305c:	ea00000e 	b	309c <wpa_drv_set_key+0xf8>
    3060:	e59f01f8 	ldr	r0, [pc, #504]	; 3260 <wpa_drv_set_key+0x2bc>
    3064:	eb006c6f 	bl	1e228 <printf>
    3068:	e3a034ca 	mov	r3, #-905969664	; 0xca000000
    306c:	e5932338 	ldr	r2, [r3, #824]	; 0x338
    3070:	e3c22038 	bic	r2, r2, #56	; 0x38
    3074:	e5832338 	str	r2, [r3, #824]	; 0x338
    3078:	e5932338 	ldr	r2, [r3, #824]	; 0x338
    307c:	e3580000 	cmp	r8, #0
    3080:	e3c22007 	bic	r2, r2, #7
    3084:	e5832338 	str	r2, [r3, #824]	; 0x338
    3088:	1a000071 	bne	3254 <wpa_drv_set_key+0x2b0>
    308c:	e59f01d0 	ldr	r0, [pc, #464]	; 3264 <wpa_drv_set_key+0x2c0>
    3090:	eb006c64 	bl	1e228 <printf>
    3094:	e1a05008 	mov	r5, r8
    3098:	ea00006d 	b	3254 <wpa_drv_set_key+0x2b0>
    309c:	e3a05001 	mov	r5, #1
    30a0:	e1a01005 	mov	r1, r5
    30a4:	e1a02004 	mov	r2, r4
    30a8:	e1a05c05 	lsl	r5, r5, #24
    30ac:	e59f01b4 	ldr	r0, [pc, #436]	; 3268 <wpa_drv_set_key+0x2c4>
    30b0:	eb006c5c 	bl	1e228 <printf>
    30b4:	e1a01c45 	asr	r1, r5, #24
    30b8:	e59f01ac 	ldr	r0, [pc, #428]	; 326c <wpa_drv_set_key+0x2c8>
    30bc:	eb006c59 	bl	1e228 <printf>
    30c0:	ea000062 	b	3250 <wpa_drv_set_key+0x2ac>
    30c4:	e3550002 	cmp	r5, #2
    30c8:	03a0a003 	moveq	sl, #3
    30cc:	0a000008 	beq	30f4 <wpa_drv_set_key+0x150>
    30d0:	e3550003 	cmp	r5, #3
    30d4:	03a0a004 	moveq	sl, #4
    30d8:	0a000005 	beq	30f4 <wpa_drv_set_key+0x150>
    30dc:	e3550001 	cmp	r5, #1
    30e0:	13a0a000 	movne	sl, #0
    30e4:	1a000002 	bne	30f4 <wpa_drv_set_key+0x150>
    30e8:	e3560005 	cmp	r6, #5
    30ec:	13a0a002 	movne	sl, #2
    30f0:	03a0a001 	moveq	sl, #1
    30f4:	e59d2050 	ldr	r2, [sp, #80]	; 0x50
    30f8:	e3520002 	cmp	r2, #2
    30fc:	1a000015 	bne	3158 <wpa_drv_set_key+0x1b4>
    3100:	e59f0168 	ldr	r0, [pc, #360]	; 3270 <wpa_drv_set_key+0x2cc>
    3104:	eb006c47 	bl	1e228 <printf>
    3108:	e3a034ca 	mov	r3, #-905969664	; 0xca000000
    310c:	e5932338 	ldr	r2, [r3, #824]	; 0x338
    3110:	e3c22038 	bic	r2, r2, #56	; 0x38
    3114:	e182218a 	orr	r2, r2, sl, lsl #3
    3118:	e5832338 	str	r2, [r3, #824]	; 0x338
    311c:	e5932338 	ldr	r2, [r3, #824]	; 0x338
    3120:	e3c22007 	bic	r2, r2, #7
    3124:	e18aa002 	orr	sl, sl, r2
    3128:	e583a338 	str	sl, [r3, #824]	; 0x338
    312c:	e1a01004 	mov	r1, r4
    3130:	e1a02007 	mov	r2, r7
    3134:	e1a03006 	mov	r3, r6
    3138:	e3a00000 	mov	r0, #0
    313c:	ebffff82 	bl	2f4c <sram_set_wep>
    3140:	e1a01004 	mov	r1, r4
    3144:	e1a02007 	mov	r2, r7
    3148:	e1a03006 	mov	r3, r6
    314c:	e3a00001 	mov	r0, #1
    3150:	ebffff7d 	bl	2f4c <sram_set_wep>
    3154:	ea00003d 	b	3250 <wpa_drv_set_key+0x2ac>
    3158:	e353000e 	cmp	r3, #14
    315c:	0a000017 	beq	31c0 <wpa_drv_set_key+0x21c>
    3160:	e353000f 	cmp	r3, #15
    3164:	03e05000 	mvneq	r5, #0
    3168:	0a000039 	beq	3254 <wpa_drv_set_key+0x2b0>
    316c:	e28d1004 	add	r1, sp, #4
    3170:	e3a00000 	mov	r0, #0
    3174:	e28d5008 	add	r5, sp, #8
    3178:	eb005ad6 	bl	19cd8 <drv_mac_get_wsid_table>
    317c:	e1a01008 	mov	r1, r8
    3180:	e1a00005 	mov	r0, r5
    3184:	e3a02006 	mov	r2, #6
    3188:	eb006c0a 	bl	1e1b8 <memcmp>
    318c:	e2501000 	subs	r1, r0, #0
    3190:	0a00001e 	beq	3210 <wpa_drv_set_key+0x26c>
    3194:	e28d1004 	add	r1, sp, #4
    3198:	e3a00001 	mov	r0, #1
    319c:	eb005acd 	bl	19cd8 <drv_mac_get_wsid_table>
    31a0:	e1a00005 	mov	r0, r5
    31a4:	e1a01008 	mov	r1, r8
    31a8:	e3a02006 	mov	r2, #6
    31ac:	eb006c01 	bl	1e1b8 <memcmp>
    31b0:	e3500000 	cmp	r0, #0
    31b4:	13a05002 	movne	r5, #2
    31b8:	1a000018 	bne	3220 <wpa_drv_set_key+0x27c>
    31bc:	ea000012 	b	320c <wpa_drv_set_key+0x268>
    31c0:	e3a034ca 	mov	r3, #-905969664	; 0xca000000
    31c4:	e5932338 	ldr	r2, [r3, #824]	; 0x338
    31c8:	e3c22038 	bic	r2, r2, #56	; 0x38
    31cc:	e182a18a 	orr	sl, r2, sl, lsl #3
    31d0:	e583a338 	str	sl, [r3, #824]	; 0x338
    31d4:	e59f0098 	ldr	r0, [pc, #152]	; 3274 <wpa_drv_set_key+0x2d0>
    31d8:	e1a01004 	mov	r1, r4
    31dc:	eb006c11 	bl	1e228 <printf>
    31e0:	e3550001 	cmp	r5, #1
    31e4:	1a000001 	bne	31f0 <wpa_drv_set_key+0x24c>
    31e8:	e3540000 	cmp	r4, #0
    31ec:	03a04001 	moveq	r4, #1
    31f0:	e3a00000 	mov	r0, #0
    31f4:	e1a01004 	mov	r1, r4
    31f8:	e1a02007 	mov	r2, r7
    31fc:	e1a03006 	mov	r3, r6
    3200:	ebffff03 	bl	2e14 <sram_set_key>
    3204:	e3a00001 	mov	r0, #1
    3208:	ea00000c 	b	3240 <wpa_drv_set_key+0x29c>
    320c:	e3a01001 	mov	r1, #1
    3210:	e59f0060 	ldr	r0, [pc, #96]	; 3278 <wpa_drv_set_key+0x2d4>
    3214:	e1a02004 	mov	r2, r4
    3218:	e20150ff 	and	r5, r1, #255	; 0xff
    321c:	eb006c01 	bl	1e228 <printf>
    3220:	e3a034ca 	mov	r3, #-905969664	; 0xca000000
    3224:	e5932338 	ldr	r2, [r3, #824]	; 0x338
    3228:	e3c22007 	bic	r2, r2, #7
    322c:	e18aa002 	orr	sl, sl, r2
    3230:	e3550002 	cmp	r5, #2
    3234:	e583a338 	str	sl, [r3, #824]	; 0x338
    3238:	0a000004 	beq	3250 <wpa_drv_set_key+0x2ac>
    323c:	e1a00005 	mov	r0, r5
    3240:	e1a01004 	mov	r1, r4
    3244:	e1a02007 	mov	r2, r7
    3248:	e1a03006 	mov	r3, r6
    324c:	ebfffef0 	bl	2e14 <sram_set_key>
    3250:	e3a05000 	mov	r5, #0
    3254:	e1a00005 	mov	r0, r5
    3258:	e28dd034 	add	sp, sp, #52	; 0x34
    325c:	e8bd85f0 	pop	{r4, r5, r6, r7, r8, sl, pc}
    3260:	0002578c 	andeq	r5, r2, ip, lsl #15
    3264:	000257ab 	andeq	r5, r2, fp, lsr #15
    3268:	000257bb 			; <UNDEFINED> instruction: 0x000257bb
    326c:	000257db 	ldrdeq	r5, [r2], -fp
    3270:	000257f0 	strdeq	r5, [r2], -r0
    3274:	000257ff 	strdeq	r5, [r2], -pc	; <UNPREDICTABLE>
    3278:	0002581e 	andeq	r5, r2, lr, lsl r8

0000327c <wpa_drv_get_mac_addr>:
    327c:	e92d4008 	push	{r3, lr}
    3280:	eb0059e6 	bl	19a20 <drv_mac_get_sta_mac>
    3284:	e3a00000 	mov	r0, #0
    3288:	e8bd8008 	pop	{r3, pc}

0000328c <wpa_drv_send_eapol>:
    328c:	e92d47ff 	push	{r0, r1, r2, r3, r4, r5, r6, r7, r8, r9, sl, lr}
    3290:	e1a0a003 	mov	sl, r3
    3294:	e3a03007 	mov	r3, #7
    3298:	e5cd300e 	strb	r3, [sp, #14]
    329c:	e3a03000 	mov	r3, #0
    32a0:	e5cd300f 	strb	r3, [sp, #15]
    32a4:	e3a034ca 	mov	r3, #-905969664	; 0xca000000
    32a8:	e593631c 	ldr	r6, [r3, #796]	; 0x31c
    32ac:	e593331c 	ldr	r3, [r3, #796]	; 0x31c
    32b0:	e2066003 	and	r6, r6, #3
    32b4:	e3560003 	cmp	r6, #3
    32b8:	03a06006 	moveq	r6, #6
    32bc:	13a06000 	movne	r6, #0
    32c0:	e3130010 	tst	r3, #16
    32c4:	e3a034ca 	mov	r3, #-905969664	; 0xca000000
    32c8:	e593331c 	ldr	r3, [r3, #796]	; 0x31c
    32cc:	12866002 	addne	r6, r6, #2
    32d0:	e313000c 	tst	r3, #12
    32d4:	12866004 	addne	r6, r6, #4
    32d8:	e59d7030 	ldr	r7, [sp, #48]	; 0x30
    32dc:	11a06806 	lslne	r6, r6, #16
    32e0:	11a06826 	lsrne	r6, r6, #16
    32e4:	e287000e 	add	r0, r7, #14
    32e8:	e1a09001 	mov	r9, r1
    32ec:	e1a05002 	mov	r5, r2
    32f0:	e0800006 	add	r0, r0, r6
    32f4:	e3a01001 	mov	r1, #1
    32f8:	e3a02002 	mov	r2, #2
    32fc:	eb004533 	bl	147d0 <PBUF_MAlloc_Raw>
    3300:	e2504000 	subs	r4, r0, #0
    3304:	1a000007 	bne	3328 <wpa_drv_send_eapol+0x9c>
    3308:	e59f11b8 	ldr	r1, [pc, #440]	; 34c8 <wpa_drv_send_eapol+0x23c>
    330c:	e59f21b8 	ldr	r2, [pc, #440]	; 34cc <wpa_drv_send_eapol+0x240>
    3310:	e59f31b8 	ldr	r3, [pc, #440]	; 34d0 <wpa_drv_send_eapol+0x244>
    3314:	e59f01b8 	ldr	r0, [pc, #440]	; 34d4 <wpa_drv_send_eapol+0x248>
    3318:	eb006bc2 	bl	1e228 <printf>
    331c:	eb005cf4 	bl	1a6f4 <stop_and_halt>
    3320:	e1a00004 	mov	r0, r4
    3324:	ea000065 	b	34c0 <wpa_drv_send_eapol+0x234>
    3328:	e1a08807 	lsl	r8, r7, #16
    332c:	e1a08828 	lsr	r8, r8, #16
    3330:	e288300e 	add	r3, r8, #14
    3334:	e0866003 	add	r6, r6, r3
    3338:	e5943000 	ldr	r3, [r4]
    333c:	e1a03823 	lsr	r3, r3, #16
    3340:	e1833806 	orr	r3, r3, r6, lsl #16
    3344:	e1a03863 	ror	r3, r3, #16
    3348:	e5c43000 	strb	r3, [r4]
    334c:	e1a03443 	asr	r3, r3, #8
    3350:	e5c43001 	strb	r3, [r4, #1]
    3354:	e5d43002 	ldrb	r3, [r4, #2]
    3358:	e20330f0 	and	r3, r3, #240	; 0xf0
    335c:	e5c43002 	strb	r3, [r4, #2]
    3360:	e3a034ca 	mov	r3, #-905969664	; 0xca000000
    3364:	e593231c 	ldr	r2, [r3, #796]	; 0x31c
    3368:	e5d41002 	ldrb	r1, [r4, #2]
    336c:	e2022010 	and	r2, r2, #16
    3370:	e3c11010 	bic	r1, r1, #16
    3374:	e1822001 	orr	r2, r2, r1
    3378:	e5c42002 	strb	r2, [r4, #2]
    337c:	e593231c 	ldr	r2, [r3, #796]	; 0x31c
    3380:	e312000c 	tst	r2, #12
    3384:	e5d42002 	ldrb	r2, [r4, #2]
    3388:	13a01020 	movne	r1, #32
    338c:	03a01000 	moveq	r1, #0
    3390:	e3c22020 	bic	r2, r2, #32
    3394:	e1812002 	orr	r2, r1, r2
    3398:	e5c42002 	strb	r2, [r4, #2]
    339c:	e593231c 	ldr	r2, [r3, #796]	; 0x31c
    33a0:	e2022003 	and	r2, r2, #3
    33a4:	e5d41002 	ldrb	r1, [r4, #2]
    33a8:	e2420003 	sub	r0, r2, #3
    33ac:	e2702000 	rsbs	r2, r0, #0
    33b0:	e0a22000 	adc	r2, r2, r0
    33b4:	e3c11040 	bic	r1, r1, #64	; 0x40
    33b8:	e1812302 	orr	r2, r1, r2, lsl #6
    33bc:	e5c42002 	strb	r2, [r4, #2]
    33c0:	e5942000 	ldr	r2, [r4]
    33c4:	e1a02822 	lsr	r2, r2, #16
    33c8:	e3c22d0e 	bic	r2, r2, #896	; 0x380
    33cc:	e5c42002 	strb	r2, [r4, #2]
    33d0:	e5dd1034 	ldrb	r1, [sp, #52]	; 0x34
    33d4:	e1a02422 	lsr	r2, r2, #8
    33d8:	e2011001 	and	r1, r1, #1
    33dc:	e20220e4 	and	r2, r2, #228	; 0xe4
    33e0:	e1822181 	orr	r2, r2, r1, lsl #3
    33e4:	e5c42003 	strb	r2, [r4, #3]
    33e8:	e593631c 	ldr	r6, [r3, #796]	; 0x31c
    33ec:	e5d43002 	ldrb	r3, [r4, #2]
    33f0:	e2066cff 	and	r6, r6, #65280	; 0xff00
    33f4:	e3130040 	tst	r3, #64	; 0x40
    33f8:	e0846426 	add	r6, r4, r6, lsr #8
    33fc:	0a000004 	beq	3414 <wpa_drv_send_eapol+0x188>
    3400:	e1a00006 	mov	r0, r6
    3404:	e1a0100d 	mov	r1, sp
    3408:	e3a02006 	mov	r2, #6
    340c:	eb006b61 	bl	1e198 <memcpy>
    3410:	e2866006 	add	r6, r6, #6
    3414:	e5d43002 	ldrb	r3, [r4, #2]
    3418:	e3130010 	tst	r3, #16
    341c:	0a000004 	beq	3434 <wpa_drv_send_eapol+0x1a8>
    3420:	e1a00006 	mov	r0, r6
    3424:	e28d100e 	add	r1, sp, #14
    3428:	e3a02002 	mov	r2, #2
    342c:	eb006b59 	bl	1e198 <memcpy>
    3430:	e2866002 	add	r6, r6, #2
    3434:	e5d43002 	ldrb	r3, [r4, #2]
    3438:	e3130020 	tst	r3, #32
    343c:	0a000004 	beq	3454 <wpa_drv_send_eapol+0x1c8>
    3440:	e1a00006 	mov	r0, r6
    3444:	e28d1008 	add	r1, sp, #8
    3448:	e3a02004 	mov	r2, #4
    344c:	eb006b51 	bl	1e198 <memcpy>
    3450:	e2866004 	add	r6, r6, #4
    3454:	e1a01009 	mov	r1, r9
    3458:	e3a02006 	mov	r2, #6
    345c:	e1a00006 	mov	r0, r6
    3460:	eb006b4c 	bl	1e198 <memcpy>
    3464:	e2860006 	add	r0, r6, #6
    3468:	eb00596c 	bl	19a20 <drv_mac_get_sta_mac>
    346c:	e1a03425 	lsr	r3, r5, #8
    3470:	e1835405 	orr	r5, r3, r5, lsl #8
    3474:	e5c6500c 	strb	r5, [r6, #12]
    3478:	e1a05445 	asr	r5, r5, #8
    347c:	e5c6500d 	strb	r5, [r6, #13]
    3480:	e1a0100a 	mov	r1, sl
    3484:	e1a02008 	mov	r2, r8
    3488:	e286000e 	add	r0, r6, #14
    348c:	eb006b41 	bl	1e198 <memcpy>
    3490:	e1a00004 	mov	r0, r4
    3494:	e3a01001 	mov	r1, #1
    3498:	eb001579 	bl	8a84 <ssv6xxx_PacketToNextHW>
    349c:	e3700001 	cmn	r0, #1
    34a0:	e1a05000 	mov	r5, r0
    34a4:	11a00007 	movne	r0, r7
    34a8:	1a000004 	bne	34c0 <wpa_drv_send_eapol+0x234>
    34ac:	e1a00004 	mov	r0, r4
    34b0:	eb0044de 	bl	14830 <_PBUF_MFree>
    34b4:	e59f001c 	ldr	r0, [pc, #28]	; 34d8 <wpa_drv_send_eapol+0x24c>
    34b8:	eb006b5a 	bl	1e228 <printf>
    34bc:	e1a00005 	mov	r0, r5
    34c0:	e28dd010 	add	sp, sp, #16
    34c4:	e8bd87f0 	pop	{r4, r5, r6, r7, r8, r9, sl, pc}
    34c8:	00025882 	andeq	r5, r2, r2, lsl #17
    34cc:	00024500 	andeq	r4, r2, r0, lsl #10
    34d0:	00000152 	andeq	r0, r0, r2, asr r1
    34d4:	00025849 	andeq	r5, r2, r9, asr #16
    34d8:	00025892 	muleq	r2, r2, r8

000034dc <wpa_drv_set_operstate>:
    34dc:	e3510008 	cmp	r1, #8
    34e0:	e92d4008 	push	{r3, lr}
    34e4:	1a000003 	bne	34f8 <wpa_drv_set_operstate+0x1c>
    34e8:	e3a00001 	mov	r0, #1
    34ec:	eb0027af 	bl	d3b0 <Supplicant_Notify_MLME_4way>
    34f0:	e3a00002 	mov	r0, #2
    34f4:	ea000003 	b	3508 <wpa_drv_set_operstate+0x2c>
    34f8:	e2411006 	sub	r1, r1, #6
    34fc:	e3510001 	cmp	r1, #1
    3500:	8a000001 	bhi	350c <wpa_drv_set_operstate+0x30>
    3504:	e3a00005 	mov	r0, #5
    3508:	eb001843 	bl	961c <SetStaAction>
    350c:	e3a00000 	mov	r0, #0
    3510:	e8bd8008 	pop	{r3, pc}

00003514 <wpa_eapol_key_send>:
    3514:	e92d45f7 	push	{r0, r1, r2, r4, r5, r6, r7, r8, sl, lr}
    3518:	e1a04003 	mov	r4, r3
    351c:	e1a05000 	mov	r5, r0
    3520:	e5d4c001 	ldrb	ip, [r4, #1]
    3524:	e5d40000 	ldrb	r0, [r4]
    3528:	e18cc000 	orr	ip, ip, r0
    352c:	e5d40002 	ldrb	r0, [r4, #2]
    3530:	e18cc000 	orr	ip, ip, r0
    3534:	e5d40003 	ldrb	r0, [r4, #3]
    3538:	e18cc000 	orr	ip, ip, r0
    353c:	e5d40004 	ldrb	r0, [r4, #4]
    3540:	e18cc000 	orr	ip, ip, r0
    3544:	e5d40005 	ldrb	r0, [r4, #5]
    3548:	e5dd3028 	ldrb	r3, [sp, #40]	; 0x28
    354c:	e5dda029 	ldrb	sl, [sp, #41]	; 0x29
    3550:	e28d602c 	add	r6, sp, #44	; 0x2c
    3554:	e19c0000 	orrs	r0, ip, r0
    3558:	e183a40a 	orr	sl, r3, sl, lsl #8
    355c:	e89600c0 	ldm	r6, {r6, r7}
    3560:	e59d3034 	ldr	r3, [sp, #52]	; 0x34
    3564:	e5dd8038 	ldrb	r8, [sp, #56]	; 0x38
    3568:	1a00000c 	bne	35a0 <wpa_eapol_key_send+0x8c>
    356c:	e5d5013a 	ldrb	r0, [r5, #314]	; 0x13a
    3570:	e5d5c13b 	ldrb	ip, [r5, #315]	; 0x13b
    3574:	e18cc000 	orr	ip, ip, r0
    3578:	e5d5013c 	ldrb	r0, [r5, #316]	; 0x13c
    357c:	e18cc000 	orr	ip, ip, r0
    3580:	e5d5013d 	ldrb	r0, [r5, #317]	; 0x13d
    3584:	e18cc000 	orr	ip, ip, r0
    3588:	e5d5013e 	ldrb	r0, [r5, #318]	; 0x13e
    358c:	e18cc000 	orr	ip, ip, r0
    3590:	e5d5013f 	ldrb	r0, [r5, #319]	; 0x13f
    3594:	e19c0000 	orrs	r0, ip, r0
    3598:	02854f4e 	addeq	r4, r5, #312	; 0x138
    359c:	02844002 	addeq	r4, r4, #2
    35a0:	e3530000 	cmp	r3, #0
    35a4:	0a000007 	beq	35c8 <wpa_eapol_key_send+0xb4>
    35a8:	e58d3000 	str	r3, [sp]
    35ac:	e1a00001 	mov	r0, r1
    35b0:	e1a03007 	mov	r3, r7
    35b4:	e1a01002 	mov	r1, r2
    35b8:	e1a02006 	mov	r2, r6
    35bc:	ebfff2e0 	bl	144 <wpa_eapol_key_mic>
    35c0:	e3500000 	cmp	r0, #0
    35c4:	1a000006 	bne	35e4 <wpa_eapol_key_send+0xd0>
    35c8:	e88d0180 	stm	sp, {r7, r8}
    35cc:	e5953104 	ldr	r3, [r5, #260]	; 0x104
    35d0:	e1a01004 	mov	r1, r4
    35d4:	e5930000 	ldr	r0, [r3]
    35d8:	e1a0200a 	mov	r2, sl
    35dc:	e1a03006 	mov	r3, r6
    35e0:	eb000ab5 	bl	60bc <wpa_ether_send>
    35e4:	e1a00006 	mov	r0, r6
    35e8:	e28dd00c 	add	sp, sp, #12
    35ec:	e8bd45f0 	pop	{r4, r5, r6, r7, r8, sl, lr}
    35f0:	ea000803 	b	5604 <os_free>

000035f4 <wpa_sm_key_request>:
    35f4:	e92d45f0 	push	{r4, r5, r6, r7, r8, sl, lr}
    35f8:	e1a04000 	mov	r4, r0
    35fc:	e24dd02c 	sub	sp, sp, #44	; 0x2c
    3600:	e590014c 	ldr	r0, [r0, #332]	; 0x14c
    3604:	e1a07001 	mov	r7, r1
    3608:	e1a06002 	mov	r6, r2
    360c:	ebfff474 	bl	7e4 <wpa_key_mgmt_ft>
    3610:	e3500000 	cmp	r0, #0
    3614:	1a000008 	bne	363c <wpa_sm_key_request+0x48>
    3618:	e594014c 	ldr	r0, [r4, #332]	; 0x14c
    361c:	ebfff474 	bl	7f4 <wpa_key_mgmt_sha256>
    3620:	e3500000 	cmp	r0, #0
    3624:	1a000004 	bne	363c <wpa_sm_key_request+0x48>
    3628:	e5945144 	ldr	r5, [r4, #324]	; 0x144
    362c:	e3550010 	cmp	r5, #16
    3630:	13a05001 	movne	r5, #1
    3634:	03a05002 	moveq	r5, #2
    3638:	ea000000 	b	3640 <wpa_sm_key_request+0x4c>
    363c:	e3a05003 	mov	r5, #3
    3640:	e28d2020 	add	r2, sp, #32
    3644:	e58d2000 	str	r2, [sp]
    3648:	e28d2024 	add	r2, sp, #36	; 0x24
    364c:	e5943104 	ldr	r3, [r4, #260]	; 0x104
    3650:	e58d2004 	str	r2, [sp, #4]
    3654:	e3a01003 	mov	r1, #3
    3658:	e5930000 	ldr	r0, [r3]
    365c:	e3a02000 	mov	r2, #0
    3660:	e3a0305f 	mov	r3, #95	; 0x5f
    3664:	eb000a74 	bl	603c <wpa_alloc_eapol>
    3668:	e250a000 	subs	sl, r0, #0
    366c:	0a00002c 	beq	3724 <wpa_sm_key_request+0x130>
    3670:	e5943140 	ldr	r3, [r4, #320]	; 0x140
    3674:	e59d0024 	ldr	r0, [sp, #36]	; 0x24
    3678:	e3530002 	cmp	r3, #2
    367c:	03a03002 	moveq	r3, #2
    3680:	13a030fe 	movne	r3, #254	; 0xfe
    3684:	e5c03000 	strb	r3, [r0]
    3688:	e59430a4 	ldr	r3, [r4, #164]	; 0xa4
    368c:	e3530000 	cmp	r3, #0
    3690:	e3858b02 	orr	r8, r5, #2048	; 0x800
    3694:	13858c09 	orrne	r8, r5, #2304	; 0x900
    3698:	e3570000 	cmp	r7, #0
    369c:	13888b01 	orrne	r8, r8, #1024	; 0x400
    36a0:	e3560000 	cmp	r6, #0
    36a4:	13888008 	orrne	r8, r8, #8
    36a8:	e1a03428 	lsr	r3, r8, #8
    36ac:	e3a06000 	mov	r6, #0
    36b0:	e28470fc 	add	r7, r4, #252	; 0xfc
    36b4:	e5c03001 	strb	r3, [r0, #1]
    36b8:	e5c08002 	strb	r8, [r0, #2]
    36bc:	e3a02008 	mov	r2, #8
    36c0:	e5c06003 	strb	r6, [r0, #3]
    36c4:	e5c06004 	strb	r6, [r0, #4]
    36c8:	e1a01007 	mov	r1, r7
    36cc:	e2800005 	add	r0, r0, #5
    36d0:	eb006ab0 	bl	1e198 <memcpy>
    36d4:	e1a00007 	mov	r0, r7
    36d8:	e3a01008 	mov	r1, #8
    36dc:	eb0006fe 	bl	52dc <inc_byte_array>
    36e0:	e59d3024 	ldr	r3, [sp, #36]	; 0x24
    36e4:	e2188c01 	ands	r8, r8, #256	; 0x100
    36e8:	e5c3605d 	strb	r6, [r3, #93]	; 0x5d
    36ec:	e5c3605e 	strb	r6, [r3, #94]	; 0x5e
    36f0:	1283804d 	addne	r8, r3, #77	; 0x4d
    36f4:	e59f3030 	ldr	r3, [pc, #48]	; 372c <wpa_sm_key_request+0x138>
    36f8:	e59d2020 	ldr	r2, [sp, #32]
    36fc:	e88d0408 	stm	sp, {r3, sl}
    3700:	e3a03001 	mov	r3, #1
    3704:	e58d2008 	str	r2, [sp, #8]
    3708:	e58d3010 	str	r3, [sp, #16]
    370c:	e2841024 	add	r1, r4, #36	; 0x24
    3710:	e1a00004 	mov	r0, r4
    3714:	e1a02005 	mov	r2, r5
    3718:	e28d3018 	add	r3, sp, #24
    371c:	e58d800c 	str	r8, [sp, #12]
    3720:	ebffff7b 	bl	3514 <wpa_eapol_key_send>
    3724:	e28dd02c 	add	sp, sp, #44	; 0x2c
    3728:	e8bd85f0 	pop	{r4, r5, r6, r7, r8, sl, pc}
    372c:	0000888e 	andeq	r8, r0, lr, lsl #17

00003730 <wpa_sm_rekey_ptk>:
    3730:	e3a01000 	mov	r1, #0
    3734:	e3a02001 	mov	r2, #1
    3738:	eaffffad 	b	35f4 <wpa_sm_key_request>

0000373c <wpa_supplicant_send_2_of_4>:
    373c:	e92d4ff0 	push	{r4, r5, r6, r7, r8, r9, sl, fp, lr}
    3740:	e24dd024 	sub	sp, sp, #36	; 0x24
    3744:	e59d904c 	ldr	r9, [sp, #76]	; 0x4c
    3748:	e3590000 	cmp	r9, #0
    374c:	e1a04000 	mov	r4, r0
    3750:	e1a0b001 	mov	fp, r1
    3754:	e1a07002 	mov	r7, r2
    3758:	e1a05003 	mov	r5, r3
    375c:	e59d6050 	ldr	r6, [sp, #80]	; 0x50
    3760:	0a000048 	beq	3888 <wpa_supplicant_send_2_of_4+0x14c>
    3764:	e28d1018 	add	r1, sp, #24
    3768:	e5902104 	ldr	r2, [r0, #260]	; 0x104
    376c:	e58d1000 	str	r1, [sp]
    3770:	e28d101c 	add	r1, sp, #28
    3774:	e58d1004 	str	r1, [sp, #4]
    3778:	e1a03806 	lsl	r3, r6, #16
    377c:	e1a08823 	lsr	r8, r3, #16
    3780:	e283385f 	add	r3, r3, #6225920	; 0x5f0000
    3784:	e5920000 	ldr	r0, [r2]
    3788:	e3a01003 	mov	r1, #3
    378c:	e3a02000 	mov	r2, #0
    3790:	e1a03823 	lsr	r3, r3, #16
    3794:	eb000a28 	bl	603c <wpa_alloc_eapol>
    3798:	e250a000 	subs	sl, r0, #0
    379c:	1a000001 	bne	37a8 <wpa_supplicant_send_2_of_4+0x6c>
    37a0:	eb000797 	bl	5604 <os_free>
    37a4:	ea000037 	b	3888 <wpa_supplicant_send_2_of_4+0x14c>
    37a8:	e5943140 	ldr	r3, [r4, #320]	; 0x140
    37ac:	e59d001c 	ldr	r0, [sp, #28]
    37b0:	e3530002 	cmp	r3, #2
    37b4:	03a03002 	moveq	r3, #2
    37b8:	13a030fe 	movne	r3, #254	; 0xfe
    37bc:	e5c03000 	strb	r3, [r0]
    37c0:	e3853f42 	orr	r3, r5, #264	; 0x108
    37c4:	e1a03423 	lsr	r3, r3, #8
    37c8:	e5c03001 	strb	r3, [r0, #1]
    37cc:	e3853008 	orr	r3, r5, #8
    37d0:	e5c03002 	strb	r3, [r0, #2]
    37d4:	e5943140 	ldr	r3, [r4, #320]	; 0x140
    37d8:	e3530002 	cmp	r3, #2
    37dc:	03a03000 	moveq	r3, #0
    37e0:	05c03003 	strbeq	r3, [r0, #3]
    37e4:	05c03004 	strbeq	r3, [r0, #4]
    37e8:	12800003 	addne	r0, r0, #3
    37ec:	12871003 	addne	r1, r7, #3
    37f0:	13a02002 	movne	r2, #2
    37f4:	1b006a67 	blne	1e198 <memcpy>
    37f8:	e59d001c 	ldr	r0, [sp, #28]
    37fc:	e2871005 	add	r1, r7, #5
    3800:	e3a02008 	mov	r2, #8
    3804:	e2800005 	add	r0, r0, #5
    3808:	eb006a62 	bl	1e198 <memcpy>
    380c:	e59d001c 	ldr	r0, [sp, #28]
    3810:	e1a08428 	lsr	r8, r8, #8
    3814:	e1a02006 	mov	r2, r6
    3818:	e5c0605e 	strb	r6, [r0, #94]	; 0x5e
    381c:	e1a01009 	mov	r1, r9
    3820:	e5c0805d 	strb	r8, [r0, #93]	; 0x5d
    3824:	e280005f 	add	r0, r0, #95	; 0x5f
    3828:	eb006a5a 	bl	1e198 <memcpy>
    382c:	e3a00000 	mov	r0, #0
    3830:	eb000773 	bl	5604 <os_free>
    3834:	e59d001c 	ldr	r0, [sp, #28]
    3838:	e59d1048 	ldr	r1, [sp, #72]	; 0x48
    383c:	e3a02020 	mov	r2, #32
    3840:	e280000d 	add	r0, r0, #13
    3844:	eb006a53 	bl	1e198 <memcpy>
    3848:	e59f3044 	ldr	r3, [pc, #68]	; 3894 <wpa_supplicant_send_2_of_4+0x158>
    384c:	e88d0408 	stm	sp, {r3, sl}
    3850:	e59d3018 	ldr	r3, [sp, #24]
    3854:	e58d3008 	str	r3, [sp, #8]
    3858:	e59d301c 	ldr	r3, [sp, #28]
    385c:	e283304d 	add	r3, r3, #77	; 0x4d
    3860:	e58d300c 	str	r3, [sp, #12]
    3864:	e3a06000 	mov	r6, #0
    3868:	e1a00004 	mov	r0, r4
    386c:	e59d1054 	ldr	r1, [sp, #84]	; 0x54
    3870:	e1a02005 	mov	r2, r5
    3874:	e1a0300b 	mov	r3, fp
    3878:	e58d6010 	str	r6, [sp, #16]
    387c:	ebffff24 	bl	3514 <wpa_eapol_key_send>
    3880:	e1a00006 	mov	r0, r6
    3884:	ea000000 	b	388c <wpa_supplicant_send_2_of_4+0x150>
    3888:	e3e00000 	mvn	r0, #0
    388c:	e28dd024 	add	sp, sp, #36	; 0x24
    3890:	e8bd8ff0 	pop	{r4, r5, r6, r7, r8, r9, sl, fp, pc}
    3894:	0000888e 	andeq	r8, r0, lr, lsl #17

00003898 <wpa_supplicant_send_4_of_4>:
    3898:	e92d4ff0 	push	{r4, r5, r6, r7, r8, r9, sl, fp, lr}
    389c:	e24dd02c 	sub	sp, sp, #44	; 0x2c
    38a0:	e58d101c 	str	r1, [sp, #28]
    38a4:	e5dd8051 	ldrb	r8, [sp, #81]	; 0x51
    38a8:	e59d5058 	ldr	r5, [sp, #88]	; 0x58
    38ac:	e28d1020 	add	r1, sp, #32
    38b0:	e1a06003 	mov	r6, r3
    38b4:	e5dd3050 	ldrb	r3, [sp, #80]	; 0x50
    38b8:	e1a07002 	mov	r7, r2
    38bc:	e5902104 	ldr	r2, [r0, #260]	; 0x104
    38c0:	e58d1000 	str	r1, [sp]
    38c4:	e28d1024 	add	r1, sp, #36	; 0x24
    38c8:	e58d1004 	str	r1, [sp, #4]
    38cc:	e1838408 	orr	r8, r3, r8, lsl #8
    38d0:	e1a03805 	lsl	r3, r5, #16
    38d4:	e1a09823 	lsr	r9, r3, #16
    38d8:	e283385f 	add	r3, r3, #6225920	; 0x5f0000
    38dc:	e1a04000 	mov	r4, r0
    38e0:	e3a01003 	mov	r1, #3
    38e4:	e5920000 	ldr	r0, [r2]
    38e8:	e1a03823 	lsr	r3, r3, #16
    38ec:	e3a02000 	mov	r2, #0
    38f0:	e59db054 	ldr	fp, [sp, #84]	; 0x54
    38f4:	eb0009d0 	bl	603c <wpa_alloc_eapol>
    38f8:	e250a000 	subs	sl, r0, #0
    38fc:	03e00000 	mvneq	r0, #0
    3900:	0a000033 	beq	39d4 <wpa_supplicant_send_4_of_4+0x13c>
    3904:	e5943140 	ldr	r3, [r4, #320]	; 0x140
    3908:	e59d0024 	ldr	r0, [sp, #36]	; 0x24
    390c:	e3530002 	cmp	r3, #2
    3910:	03a03002 	moveq	r3, #2
    3914:	13a030fe 	movne	r3, #254	; 0xfe
    3918:	e5c03000 	strb	r3, [r0]
    391c:	e2088c02 	and	r8, r8, #512	; 0x200
    3920:	e3863f42 	orr	r3, r6, #264	; 0x108
    3924:	e1888003 	orr	r8, r8, r3
    3928:	e1a08808 	lsl	r8, r8, #16
    392c:	e1a03828 	lsr	r3, r8, #16
    3930:	e1a08c28 	lsr	r8, r8, #24
    3934:	e5c08001 	strb	r8, [r0, #1]
    3938:	e5c03002 	strb	r3, [r0, #2]
    393c:	e5943140 	ldr	r3, [r4, #320]	; 0x140
    3940:	e3530002 	cmp	r3, #2
    3944:	03a03000 	moveq	r3, #0
    3948:	05c03003 	strbeq	r3, [r0, #3]
    394c:	05c03004 	strbeq	r3, [r0, #4]
    3950:	12800003 	addne	r0, r0, #3
    3954:	12871003 	addne	r1, r7, #3
    3958:	13a02002 	movne	r2, #2
    395c:	1b006a0d 	blne	1e198 <memcpy>
    3960:	e59d0024 	ldr	r0, [sp, #36]	; 0x24
    3964:	e2871005 	add	r1, r7, #5
    3968:	e2800005 	add	r0, r0, #5
    396c:	e3a02008 	mov	r2, #8
    3970:	eb006a08 	bl	1e198 <memcpy>
    3974:	e59d0024 	ldr	r0, [sp, #36]	; 0x24
    3978:	e1a09429 	lsr	r9, r9, #8
    397c:	e35b0000 	cmp	fp, #0
    3980:	e5c0905d 	strb	r9, [r0, #93]	; 0x5d
    3984:	e5c0505e 	strb	r5, [r0, #94]	; 0x5e
    3988:	1280005f 	addne	r0, r0, #95	; 0x5f
    398c:	11a0100b 	movne	r1, fp
    3990:	11a02005 	movne	r2, r5
    3994:	1b0069ff 	blne	1e198 <memcpy>
    3998:	e59f303c 	ldr	r3, [pc, #60]	; 39dc <wpa_supplicant_send_4_of_4+0x144>
    399c:	e88d0408 	stm	sp, {r3, sl}
    39a0:	e59d3020 	ldr	r3, [sp, #32]
    39a4:	e58d3008 	str	r3, [sp, #8]
    39a8:	e59d3024 	ldr	r3, [sp, #36]	; 0x24
    39ac:	e283304d 	add	r3, r3, #77	; 0x4d
    39b0:	e58d300c 	str	r3, [sp, #12]
    39b4:	e3a05000 	mov	r5, #0
    39b8:	e1a00004 	mov	r0, r4
    39bc:	e59d105c 	ldr	r1, [sp, #92]	; 0x5c
    39c0:	e1a02006 	mov	r2, r6
    39c4:	e59d301c 	ldr	r3, [sp, #28]
    39c8:	e58d5010 	str	r5, [sp, #16]
    39cc:	ebfffed0 	bl	3514 <wpa_eapol_key_send>
    39d0:	e1a00005 	mov	r0, r5
    39d4:	e28dd02c 	add	sp, sp, #44	; 0x2c
    39d8:	e8bd8ff0 	pop	{r4, r5, r6, r7, r8, r9, sl, fp, pc}
    39dc:	0000888e 	andeq	r8, r0, lr, lsl #17

000039e0 <wpa_sm_rx_eapol>:
    39e0:	e92d4ff0 	push	{r4, r5, r6, r7, r8, r9, sl, fp, lr}
    39e4:	e3530062 	cmp	r3, #98	; 0x62
    39e8:	e1a06003 	mov	r6, r3
    39ec:	e24ddf47 	sub	sp, sp, #284	; 0x11c
    39f0:	e1a04000 	mov	r4, r0
    39f4:	e1a05002 	mov	r5, r2
    39f8:	93a06000 	movls	r6, #0
    39fc:	9a0002ef 	bls	45c0 <wpa_sm_rx_eapol+0xbe0>
    3a00:	e1a00006 	mov	r0, r6
    3a04:	eb0006f9 	bl	55f0 <os_malloc>
    3a08:	e2508000 	subs	r8, r0, #0
    3a0c:	03e06000 	mvneq	r6, #0
    3a10:	0a0002ea 	beq	45c0 <wpa_sm_rx_eapol+0xbe0>
    3a14:	e1a02006 	mov	r2, r6
    3a18:	e1a01005 	mov	r1, r5
    3a1c:	eb0069dd 	bl	1e198 <memcpy>
    3a20:	e5d87003 	ldrb	r7, [r8, #3]
    3a24:	e5d83002 	ldrb	r3, [r8, #2]
    3a28:	e5d82001 	ldrb	r2, [r8, #1]
    3a2c:	e1833407 	orr	r3, r3, r7, lsl #8
    3a30:	e1a03803 	lsl	r3, r3, #16
    3a34:	e3520003 	cmp	r2, #3
    3a38:	e1a07823 	lsr	r7, r3, #16
    3a3c:	1a0002d8 	bne	45a4 <wpa_sm_rx_eapol+0xbc4>
    3a40:	e1a07c07 	lsl	r7, r7, #24
    3a44:	e1a07827 	lsr	r7, r7, #16
    3a48:	e2466004 	sub	r6, r6, #4
    3a4c:	e1877c23 	orr	r7, r7, r3, lsr #24
    3a50:	e1560007 	cmp	r6, r7
    3a54:	2357005e 	cmpcs	r7, #94	; 0x5e
    3a58:	83a06000 	movhi	r6, #0
    3a5c:	93a06001 	movls	r6, #1
    3a60:	9a0002cf 	bls	45a4 <wpa_sm_rx_eapol+0xbc4>
    3a64:	e5d83004 	ldrb	r3, [r8, #4]
    3a68:	e3530002 	cmp	r3, #2
    3a6c:	135300fe 	cmpne	r3, #254	; 0xfe
    3a70:	1a0002d0 	bne	45b8 <wpa_sm_rx_eapol+0xbd8>
    3a74:	e5d83006 	ldrb	r3, [r8, #6]
    3a78:	e5d89005 	ldrb	r9, [r8, #5]
    3a7c:	e1839409 	orr	r9, r3, r9, lsl #8
    3a80:	e209a007 	and	sl, r9, #7
    3a84:	e24a3001 	sub	r3, sl, #1
    3a88:	e1a03803 	lsl	r3, r3, #16
    3a8c:	e3530801 	cmp	r3, #65536	; 0x10000
    3a90:	8a0002c5 	bhi	45ac <wpa_sm_rx_eapol+0xbcc>
    3a94:	e5942144 	ldr	r2, [r4, #324]	; 0x144
    3a98:	e25a3002 	subs	r3, sl, #2
    3a9c:	13a03001 	movne	r3, #1
    3aa0:	e3520010 	cmp	r2, #16
    3aa4:	13a03000 	movne	r3, #0
    3aa8:	e3530000 	cmp	r3, #0
    3aac:	0a000004 	beq	3ac4 <wpa_sm_rx_eapol+0xe4>
    3ab0:	e5943148 	ldr	r3, [r4, #328]	; 0x148
    3ab4:	e3530010 	cmp	r3, #16
    3ab8:	0a0002bb 	beq	45ac <wpa_sm_rx_eapol+0xbcc>
    3abc:	e3190008 	tst	r9, #8
    3ac0:	1a0002b9 	bne	45ac <wpa_sm_rx_eapol+0xbcc>
    3ac4:	e59430f8 	ldr	r3, [r4, #248]	; 0xf8
    3ac8:	e3530000 	cmp	r3, #0
    3acc:	0a000005 	beq	3ae8 <wpa_sm_rx_eapol+0x108>
    3ad0:	e2880009 	add	r0, r8, #9
    3ad4:	e28410f0 	add	r1, r4, #240	; 0xf0
    3ad8:	e3a02008 	mov	r2, #8
    3adc:	eb0069b5 	bl	1e1b8 <memcmp>
    3ae0:	e3500000 	cmp	r0, #0
    3ae4:	da0002b0 	ble	45ac <wpa_sm_rx_eapol+0xbcc>
    3ae8:	e3190d82 	tst	r9, #8320	; 0x2080
    3aec:	0a0002ae 	beq	45ac <wpa_sm_rx_eapol+0xbcc>
    3af0:	e2196b02 	ands	r6, r9, #2048	; 0x800
    3af4:	1a0002ac 	bne	45ac <wpa_sm_rx_eapol+0xbcc>
    3af8:	e2193c01 	ands	r3, r9, #256	; 0x100
    3afc:	e58d3018 	str	r3, [sp, #24]
    3b00:	0a00003a 	beq	3bf0 <wpa_sm_rx_eapol+0x210>
    3b04:	e2885051 	add	r5, r8, #81	; 0x51
    3b08:	e28d0080 	add	r0, sp, #128	; 0x80
    3b0c:	e1a01005 	mov	r1, r5
    3b10:	e3a02010 	mov	r2, #16
    3b14:	eb00699f 	bl	1e198 <memcpy>
    3b18:	e59430a8 	ldr	r3, [r4, #168]	; 0xa8
    3b1c:	e3530000 	cmp	r3, #0
    3b20:	e287b004 	add	fp, r7, #4
    3b24:	0a000018 	beq	3b8c <wpa_sm_rx_eapol+0x1ac>
    3b28:	e1a01006 	mov	r1, r6
    3b2c:	e3a02010 	mov	r2, #16
    3b30:	e1a00005 	mov	r0, r5
    3b34:	e2846064 	add	r6, r4, #100	; 0x64
    3b38:	eb00695d 	bl	1e0b4 <memset>
    3b3c:	e1a0100a 	mov	r1, sl
    3b40:	e1a02008 	mov	r2, r8
    3b44:	e1a0300b 	mov	r3, fp
    3b48:	e1a00006 	mov	r0, r6
    3b4c:	e58d5000 	str	r5, [sp]
    3b50:	ebfff17b 	bl	144 <wpa_eapol_key_mic>
    3b54:	e28d0080 	add	r0, sp, #128	; 0x80
    3b58:	e1a01005 	mov	r1, r5
    3b5c:	e3a02010 	mov	r2, #16
    3b60:	eb006994 	bl	1e1b8 <memcmp>
    3b64:	e3500000 	cmp	r0, #0
    3b68:	1a000007 	bne	3b8c <wpa_sm_rx_eapol+0x1ac>
    3b6c:	e3a03001 	mov	r3, #1
    3b70:	e58400a8 	str	r0, [r4, #168]	; 0xa8
    3b74:	e58430a4 	str	r3, [r4, #164]	; 0xa4
    3b78:	e2840024 	add	r0, r4, #36	; 0x24
    3b7c:	e1a01006 	mov	r1, r6
    3b80:	e3a02040 	mov	r2, #64	; 0x40
    3b84:	eb006983 	bl	1e198 <memcpy>
    3b88:	ea000012 	b	3bd8 <wpa_sm_rx_eapol+0x1f8>
    3b8c:	e59430a4 	ldr	r3, [r4, #164]	; 0xa4
    3b90:	e3530000 	cmp	r3, #0
    3b94:	0a000284 	beq	45ac <wpa_sm_rx_eapol+0xbcc>
    3b98:	e3a01000 	mov	r1, #0
    3b9c:	e3a02010 	mov	r2, #16
    3ba0:	e1a00005 	mov	r0, r5
    3ba4:	eb006942 	bl	1e0b4 <memset>
    3ba8:	e1a0100a 	mov	r1, sl
    3bac:	e1a02008 	mov	r2, r8
    3bb0:	e1a0300b 	mov	r3, fp
    3bb4:	e2840024 	add	r0, r4, #36	; 0x24
    3bb8:	e58d5000 	str	r5, [sp]
    3bbc:	ebfff160 	bl	144 <wpa_eapol_key_mic>
    3bc0:	e28d0080 	add	r0, sp, #128	; 0x80
    3bc4:	e1a01005 	mov	r1, r5
    3bc8:	e3a02010 	mov	r2, #16
    3bcc:	eb006979 	bl	1e1b8 <memcmp>
    3bd0:	e3500000 	cmp	r0, #0
    3bd4:	1a000274 	bne	45ac <wpa_sm_rx_eapol+0xbcc>
    3bd8:	e28400f0 	add	r0, r4, #240	; 0xf0
    3bdc:	e2881009 	add	r1, r8, #9
    3be0:	e3a02008 	mov	r2, #8
    3be4:	eb00696b 	bl	1e198 <memcpy>
    3be8:	e3a03001 	mov	r3, #1
    3bec:	e58430f8 	str	r3, [r4, #248]	; 0xf8
    3bf0:	e5d86061 	ldrb	r6, [r8, #97]	; 0x61
    3bf4:	e5d83062 	ldrb	r3, [r8, #98]	; 0x62
    3bf8:	e247705f 	sub	r7, r7, #95	; 0x5f
    3bfc:	e1836406 	orr	r6, r3, r6, lsl #8
    3c00:	e1560007 	cmp	r6, r7
    3c04:	e1a0b006 	mov	fp, r6
    3c08:	8a000267 	bhi	45ac <wpa_sm_rx_eapol+0xbcc>
    3c0c:	e5943140 	ldr	r3, [r4, #320]	; 0x140
    3c10:	e3530002 	cmp	r3, #2
    3c14:	1a000035 	bne	3cf0 <wpa_sm_rx_eapol+0x310>
    3c18:	e3190a01 	tst	r9, #4096	; 0x1000
    3c1c:	0a000033 	beq	3cf0 <wpa_sm_rx_eapol+0x310>
    3c20:	e59430a4 	ldr	r3, [r4, #164]	; 0xa4
    3c24:	e3530000 	cmp	r3, #0
    3c28:	0a00025f 	beq	45ac <wpa_sm_rx_eapol+0xbcc>
    3c2c:	e35a0001 	cmp	sl, #1
    3c30:	1a000010 	bne	3c78 <wpa_sm_rx_eapol+0x298>
    3c34:	e2881031 	add	r1, r8, #49	; 0x31
    3c38:	e3a02010 	mov	r2, #16
    3c3c:	e28d0080 	add	r0, sp, #128	; 0x80
    3c40:	eb006954 	bl	1e198 <memcpy>
    3c44:	e2841034 	add	r1, r4, #52	; 0x34
    3c48:	e3a02010 	mov	r2, #16
    3c4c:	e28d0090 	add	r0, sp, #144	; 0x90
    3c50:	eb006950 	bl	1e198 <memcpy>
    3c54:	e28d0080 	add	r0, sp, #128	; 0x80
    3c58:	e3a01020 	mov	r1, #32
    3c5c:	e3a02c01 	mov	r2, #256	; 0x100
    3c60:	e2883063 	add	r3, r8, #99	; 0x63
    3c64:	e58d6000 	str	r6, [sp]
    3c68:	ebfff96b 	bl	221c <rc4_skip>
    3c6c:	e3500000 	cmp	r0, #0
    3c70:	0a000255 	beq	45cc <wpa_sm_rx_eapol+0xbec>
    3c74:	ea00024c 	b	45ac <wpa_sm_rx_eapol+0xbcc>
    3c78:	e3160007 	tst	r6, #7
    3c7c:	1a00024a 	bne	45ac <wpa_sm_rx_eapol+0xbcc>
    3c80:	e2466008 	sub	r6, r6, #8
    3c84:	e1a06806 	lsl	r6, r6, #16
    3c88:	e1a0b826 	lsr	fp, r6, #16
    3c8c:	e1a0000b 	mov	r0, fp
    3c90:	eb000656 	bl	55f0 <os_malloc>
    3c94:	e2505000 	subs	r5, r0, #0
    3c98:	0a000243 	beq	45ac <wpa_sm_rx_eapol+0xbcc>
    3c9c:	e2887063 	add	r7, r8, #99	; 0x63
    3ca0:	e2840034 	add	r0, r4, #52	; 0x34
    3ca4:	e1a019a6 	lsr	r1, r6, #19
    3ca8:	e1a02007 	mov	r2, r7
    3cac:	e1a03005 	mov	r3, r5
    3cb0:	ebfff5a3 	bl	1344 <aes_unwrap>
    3cb4:	e3500000 	cmp	r0, #0
    3cb8:	0a000002 	beq	3cc8 <wpa_sm_rx_eapol+0x2e8>
    3cbc:	e1a00005 	mov	r0, r5
    3cc0:	eb00064f 	bl	5604 <os_free>
    3cc4:	ea000238 	b	45ac <wpa_sm_rx_eapol+0xbcc>
    3cc8:	e1a01005 	mov	r1, r5
    3ccc:	e1a0200b 	mov	r2, fp
    3cd0:	e1a00007 	mov	r0, r7
    3cd4:	eb00692f 	bl	1e198 <memcpy>
    3cd8:	e1a06c26 	lsr	r6, r6, #24
    3cdc:	e1a00005 	mov	r0, r5
    3ce0:	eb000647 	bl	5604 <os_free>
    3ce4:	e5c86061 	strb	r6, [r8, #97]	; 0x61
    3ce8:	e5c8b062 	strb	fp, [r8, #98]	; 0x62
    3cec:	ea000236 	b	45cc <wpa_sm_rx_eapol+0xbec>
    3cf0:	e2195008 	ands	r5, r9, #8
    3cf4:	0a000149 	beq	4220 <wpa_sm_rx_eapol+0x840>
    3cf8:	e3190030 	tst	r9, #48	; 0x30
    3cfc:	1a00022a 	bne	45ac <wpa_sm_rx_eapol+0xbcc>
    3d00:	e2883004 	add	r3, r8, #4
    3d04:	e58d301c 	str	r3, [sp, #28]
    3d08:	e59d3018 	ldr	r3, [sp, #24]
    3d0c:	e3530000 	cmp	r3, #0
    3d10:	0a0000e6 	beq	40b0 <wpa_sm_rx_eapol+0x6d0>
    3d14:	e59f08dc 	ldr	r0, [pc, #2268]	; 45f8 <wpa_sm_rx_eapol+0xc18>
    3d18:	eb006942 	bl	1e228 <printf>
    3d1c:	e5943104 	ldr	r3, [r4, #260]	; 0x104
    3d20:	e3a01006 	mov	r1, #6
    3d24:	e5930000 	ldr	r0, [r3]
    3d28:	eb00076d 	bl	5ae4 <wpa_supplicant_set_state>
    3d2c:	e5d83006 	ldrb	r3, [r8, #6]
    3d30:	e5d85005 	ldrb	r5, [r8, #5]
    3d34:	e5d81061 	ldrb	r1, [r8, #97]	; 0x61
    3d38:	e1835405 	orr	r5, r3, r5, lsl #8
    3d3c:	e5d83062 	ldrb	r3, [r8, #98]	; 0x62
    3d40:	e2880063 	add	r0, r8, #99	; 0x63
    3d44:	e1831401 	orr	r1, r3, r1, lsl #8
    3d48:	e28d2024 	add	r2, sp, #36	; 0x24
    3d4c:	eb00040e 	bl	4d8c <wpa_supplicant_parse_ies>
    3d50:	e59d3038 	ldr	r3, [sp, #56]	; 0x38
    3d54:	e3530000 	cmp	r3, #0
    3d58:	0a000001 	beq	3d64 <wpa_sm_rx_eapol+0x384>
    3d5c:	e3150a01 	tst	r5, #4096	; 0x1000
    3d60:	0a00020a 	beq	4590 <wpa_sm_rx_eapol+0xbb0>
    3d64:	e59d0024 	ldr	r0, [sp, #36]	; 0x24
    3d68:	e3500000 	cmp	r0, #0
    3d6c:	1a000008 	bne	3d94 <wpa_sm_rx_eapol+0x3b4>
    3d70:	e59d302c 	ldr	r3, [sp, #44]	; 0x2c
    3d74:	e3530000 	cmp	r3, #0
    3d78:	1a00000f 	bne	3dbc <wpa_sm_rx_eapol+0x3dc>
    3d7c:	e5943160 	ldr	r3, [r4, #352]	; 0x160
    3d80:	e3530000 	cmp	r3, #0
    3d84:	1a000028 	bne	3e2c <wpa_sm_rx_eapol+0x44c>
    3d88:	e5943164 	ldr	r3, [r4, #356]	; 0x164
    3d8c:	e3530000 	cmp	r3, #0
    3d90:	ea000008 	b	3db8 <wpa_sm_rx_eapol+0x3d8>
    3d94:	e5941160 	ldr	r1, [r4, #352]	; 0x160
    3d98:	e3510000 	cmp	r1, #0
    3d9c:	0a000006 	beq	3dbc <wpa_sm_rx_eapol+0x3dc>
    3da0:	e59d2028 	ldr	r2, [sp, #40]	; 0x28
    3da4:	e5943168 	ldr	r3, [r4, #360]	; 0x168
    3da8:	e1520003 	cmp	r2, r3
    3dac:	1a00001e 	bne	3e2c <wpa_sm_rx_eapol+0x44c>
    3db0:	eb006900 	bl	1e1b8 <memcmp>
    3db4:	e3500000 	cmp	r0, #0
    3db8:	1a00001b 	bne	3e2c <wpa_sm_rx_eapol+0x44c>
    3dbc:	e59d302c 	ldr	r3, [sp, #44]	; 0x2c
    3dc0:	e3530000 	cmp	r3, #0
    3dc4:	0a00000c 	beq	3dfc <wpa_sm_rx_eapol+0x41c>
    3dc8:	e5943164 	ldr	r3, [r4, #356]	; 0x164
    3dcc:	e3530000 	cmp	r3, #0
    3dd0:	0a000009 	beq	3dfc <wpa_sm_rx_eapol+0x41c>
    3dd4:	e594014c 	ldr	r0, [r4, #332]	; 0x14c
    3dd8:	ebfff281 	bl	7e4 <wpa_key_mgmt_ft>
    3ddc:	e59d3030 	ldr	r3, [sp, #48]	; 0x30
    3de0:	e5941164 	ldr	r1, [r4, #356]	; 0x164
    3de4:	e58d3000 	str	r3, [sp]
    3de8:	e594216c 	ldr	r2, [r4, #364]	; 0x16c
    3dec:	e59d302c 	ldr	r3, [sp, #44]	; 0x2c
    3df0:	ebfff22e 	bl	6b0 <wpa_compare_rsn_ie>
    3df4:	e3500000 	cmp	r0, #0
    3df8:	1a00000b 	bne	3e2c <wpa_sm_rx_eapol+0x44c>
    3dfc:	e5943140 	ldr	r3, [r4, #320]	; 0x140
    3e00:	e3530001 	cmp	r3, #1
    3e04:	1a0001f4 	bne	45dc <wpa_sm_rx_eapol+0xbfc>
    3e08:	e59d302c 	ldr	r3, [sp, #44]	; 0x2c
    3e0c:	e3530000 	cmp	r3, #0
    3e10:	0a0001f1 	beq	45dc <wpa_sm_rx_eapol+0xbfc>
    3e14:	e5943164 	ldr	r3, [r4, #356]	; 0x164
    3e18:	e3530000 	cmp	r3, #0
    3e1c:	1a0001ee 	bne	45dc <wpa_sm_rx_eapol+0xbfc>
    3e20:	e5943154 	ldr	r3, [r4, #340]	; 0x154
    3e24:	e3530000 	cmp	r3, #0
    3e28:	0a0001eb 	beq	45dc <wpa_sm_rx_eapol+0xbfc>
    3e2c:	e5943104 	ldr	r3, [r4, #260]	; 0x104
    3e30:	e3a01011 	mov	r1, #17
    3e34:	e5930000 	ldr	r0, [r3]
    3e38:	eb0007d2 	bl	5d88 <wpa_supplicant_disassociate>
    3e3c:	ea0001d3 	b	4590 <wpa_sm_rx_eapol+0xbb0>
    3e40:	e5d82007 	ldrb	r2, [r8, #7]
    3e44:	e5d83008 	ldrb	r3, [r8, #8]
    3e48:	e1833402 	orr	r3, r3, r2, lsl #8
    3e4c:	e5942144 	ldr	r2, [r4, #324]	; 0x144
    3e50:	e3520008 	cmp	r2, #8
    3e54:	0a000003 	beq	3e68 <wpa_sm_rx_eapol+0x488>
    3e58:	e3520010 	cmp	r2, #16
    3e5c:	1a0001cb 	bne	4590 <wpa_sm_rx_eapol+0xbb0>
    3e60:	e3530010 	cmp	r3, #16
    3e64:	ea000000 	b	3e6c <wpa_sm_rx_eapol+0x48c>
    3e68:	e3530020 	cmp	r3, #32
    3e6c:	1a0001c7 	bne	4590 <wpa_sm_rx_eapol+0xbb0>
    3e70:	e3a03000 	mov	r3, #0
    3e74:	e2849f4e 	add	r9, r4, #312	; 0x138
    3e78:	e58d3004 	str	r3, [sp, #4]
    3e7c:	e58d3008 	str	r3, [sp, #8]
    3e80:	e2899002 	add	r9, r9, #2
    3e84:	e2843024 	add	r3, r4, #36	; 0x24
    3e88:	e58d300c 	str	r3, [sp, #12]
    3e8c:	e1a00004 	mov	r0, r4
    3e90:	e1a01009 	mov	r1, r9
    3e94:	e59d201c 	ldr	r2, [sp, #28]
    3e98:	e1a0300a 	mov	r3, sl
    3e9c:	e58d5000 	str	r5, [sp]
    3ea0:	ebfffe7c 	bl	3898 <wpa_supplicant_send_4_of_4>
    3ea4:	e3500000 	cmp	r0, #0
    3ea8:	1a0001b8 	bne	4590 <wpa_sm_rx_eapol+0xbb0>
    3eac:	e3a03001 	mov	r3, #1
    3eb0:	e3150040 	tst	r5, #64	; 0x40
    3eb4:	e58430ec 	str	r3, [r4, #236]	; 0xec
    3eb8:	0a000040 	beq	3fc0 <wpa_sm_rx_eapol+0x5e0>
    3ebc:	e58d0080 	str	r0, [sp, #128]	; 0x80
    3ec0:	e58d0084 	str	r0, [sp, #132]	; 0x84
    3ec4:	e59f0730 	ldr	r0, [pc, #1840]	; 45fc <wpa_sm_rx_eapol+0xc1c>
    3ec8:	eb0068d6 	bl	1e228 <printf>
    3ecc:	e5946144 	ldr	r6, [r4, #324]	; 0x144
    3ed0:	e3560008 	cmp	r6, #8
    3ed4:	0a000006 	beq	3ef4 <wpa_sm_rx_eapol+0x514>
    3ed8:	e3560010 	cmp	r6, #16
    3edc:	0a000002 	beq	3eec <wpa_sm_rx_eapol+0x50c>
    3ee0:	e3560001 	cmp	r6, #1
    3ee4:	1a0001a9 	bne	4590 <wpa_sm_rx_eapol+0xbb0>
    3ee8:	ea000034 	b	3fc0 <wpa_sm_rx_eapol+0x5e0>
    3eec:	e3a07003 	mov	r7, #3
    3ef0:	ea000001 	b	3efc <wpa_sm_rx_eapol+0x51c>
    3ef4:	e3a07002 	mov	r7, #2
    3ef8:	e3a06020 	mov	r6, #32
    3efc:	e5943140 	ldr	r3, [r4, #320]	; 0x140
    3f00:	e3530002 	cmp	r3, #2
    3f04:	1a000003 	bne	3f18 <wpa_sm_rx_eapol+0x538>
    3f08:	e59f06f0 	ldr	r0, [pc, #1776]	; 4600 <wpa_sm_rx_eapol+0xc20>
    3f0c:	eb0068c5 	bl	1e228 <printf>
    3f10:	e28d5080 	add	r5, sp, #128	; 0x80
    3f14:	ea000002 	b	3f24 <wpa_sm_rx_eapol+0x544>
    3f18:	e59f06e4 	ldr	r0, [pc, #1764]	; 4604 <wpa_sm_rx_eapol+0xc24>
    3f1c:	e2885041 	add	r5, r8, #65	; 0x41
    3f20:	eb0068c0 	bl	1e228 <printf>
    3f24:	e5d50003 	ldrb	r0, [r5, #3]
    3f28:	e5d51000 	ldrb	r1, [r5]
    3f2c:	e5d52001 	ldrb	r2, [r5, #1]
    3f30:	e5d53002 	ldrb	r3, [r5, #2]
    3f34:	e58d0000 	str	r0, [sp]
    3f38:	e5d50004 	ldrb	r0, [r5, #4]
    3f3c:	e58d0004 	str	r0, [sp, #4]
    3f40:	e5d50005 	ldrb	r0, [r5, #5]
    3f44:	e58d0008 	str	r0, [sp, #8]
    3f48:	e59f06b8 	ldr	r0, [pc, #1720]	; 4608 <wpa_sm_rx_eapol+0xc28>
    3f4c:	eb0068b5 	bl	1e228 <printf>
    3f50:	e3a02001 	mov	r2, #1
    3f54:	e88d0024 	stm	sp, {r2, r5}
    3f58:	e3a02006 	mov	r2, #6
    3f5c:	e58d2008 	str	r2, [sp, #8]
    3f60:	e2842044 	add	r2, r4, #68	; 0x44
    3f64:	e5943104 	ldr	r3, [r4, #260]	; 0x104
    3f68:	e58d200c 	str	r2, [sp, #12]
    3f6c:	e58d6010 	str	r6, [sp, #16]
    3f70:	e1a01007 	mov	r1, r7
    3f74:	e5930000 	ldr	r0, [r3]
    3f78:	e1a02009 	mov	r2, r9
    3f7c:	e3a03000 	mov	r3, #0
    3f80:	eb000852 	bl	60d0 <wpa_supplicant_set_key>
    3f84:	e3500000 	cmp	r0, #0
    3f88:	ba000180 	blt	4590 <wpa_sm_rx_eapol+0xbb0>
    3f8c:	e5943130 	ldr	r3, [r4, #304]	; 0x130
    3f90:	e3530000 	cmp	r3, #0
    3f94:	0a000009 	beq	3fc0 <wpa_sm_rx_eapol+0x5e0>
    3f98:	e1a01004 	mov	r1, r4
    3f9c:	e3a02000 	mov	r2, #0
    3fa0:	e59f0664 	ldr	r0, [pc, #1636]	; 460c <wpa_sm_rx_eapol+0xc2c>
    3fa4:	eb000560 	bl	552c <eloop_cancel_timeout>
    3fa8:	e3a01000 	mov	r1, #0
    3fac:	e5940130 	ldr	r0, [r4, #304]	; 0x130
    3fb0:	e59f2654 	ldr	r2, [pc, #1620]	; 460c <wpa_sm_rx_eapol+0xc2c>
    3fb4:	e1a03004 	mov	r3, r4
    3fb8:	e58d1000 	str	r1, [sp]
    3fbc:	eb00050b 	bl	53f0 <eloop_register_timeout>
    3fc0:	e5943104 	ldr	r3, [r4, #260]	; 0x104
    3fc4:	e3a01007 	mov	r1, #7
    3fc8:	e5930000 	ldr	r0, [r3]
    3fcc:	eb0006c4 	bl	5ae4 <wpa_supplicant_set_state>
    3fd0:	e59d7038 	ldr	r7, [sp, #56]	; 0x38
    3fd4:	e3570000 	cmp	r7, #0
    3fd8:	0a00002d 	beq	4094 <wpa_sm_rx_eapol+0x6b4>
    3fdc:	e59d603c 	ldr	r6, [sp, #60]	; 0x3c
    3fe0:	e28d00dc 	add	r0, sp, #220	; 0xdc
    3fe4:	e3a01000 	mov	r1, #0
    3fe8:	e3a02034 	mov	r2, #52	; 0x34
    3fec:	e2466002 	sub	r6, r6, #2
    3ff0:	eb00682f 	bl	1e0b4 <memset>
    3ff4:	e3560020 	cmp	r6, #32
    3ff8:	8a000164 	bhi	4590 <wpa_sm_rx_eapol+0xbb0>
    3ffc:	e5d73000 	ldrb	r3, [r7]
    4000:	e2033003 	and	r3, r3, #3
    4004:	e58d30e8 	str	r3, [sp, #232]	; 0xe8
    4008:	e5d73000 	ldrb	r3, [r7]
    400c:	e2133004 	ands	r3, r3, #4
    4010:	0a000003 	beq	4024 <wpa_sm_rx_eapol+0x644>
    4014:	e5943144 	ldr	r3, [r4, #324]	; 0x144
    4018:	e243c001 	sub	ip, r3, #1
    401c:	e27c3000 	rsbs	r3, ip, #0
    4020:	e0a3300c 	adc	r3, r3, ip
    4024:	e28d50dc 	add	r5, sp, #220	; 0xdc
    4028:	e2871002 	add	r1, r7, #2
    402c:	e1a02006 	mov	r2, r6
    4030:	e28d00ec 	add	r0, sp, #236	; 0xec
    4034:	e58d30e0 	str	r3, [sp, #224]	; 0xe0
    4038:	eb006856 	bl	1e198 <memcpy>
    403c:	e5940148 	ldr	r0, [r4, #328]	; 0x148
    4040:	e1a01006 	mov	r1, r6
    4044:	e1a02006 	mov	r2, r6
    4048:	e2853008 	add	r3, r5, #8
    404c:	e58d610c 	str	r6, [sp, #268]	; 0x10c
    4050:	e58d5000 	str	r5, [sp]
    4054:	eb0098d8 	bl	2a3bc <wpa_supplicant_check_group_cipher.isra.1>
    4058:	e3500000 	cmp	r0, #0
    405c:	1a00014b 	bne	4590 <wpa_sm_rx_eapol+0xbb0>
    4060:	e1a00004 	mov	r0, r4
    4064:	e1a01005 	mov	r1, r5
    4068:	e2882041 	add	r2, r8, #65	; 0x41
    406c:	eb009891 	bl	2a2b8 <wpa_supplicant_install_gtk>
    4070:	e3500000 	cmp	r0, #0
    4074:	1a000145 	bne	4590 <wpa_sm_rx_eapol+0xbb0>
    4078:	e5943104 	ldr	r3, [r4, #260]	; 0x104
    407c:	e5930000 	ldr	r0, [r3]
    4080:	eb000661 	bl	5a0c <wpa_supplicant_cancel_auth_timeout>
    4084:	e5943104 	ldr	r3, [r4, #260]	; 0x104
    4088:	e3a01008 	mov	r1, #8
    408c:	e5930000 	ldr	r0, [r3]
    4090:	eb000693 	bl	5ae4 <wpa_supplicant_set_state>
    4094:	e5943104 	ldr	r3, [r4, #260]	; 0x104
    4098:	e2841034 	add	r1, r4, #52	; 0x34
    409c:	e5930000 	ldr	r0, [r3]
    40a0:	e2842024 	add	r2, r4, #36	; 0x24
    40a4:	e28430f0 	add	r3, r4, #240	; 0xf0
    40a8:	eb000809 	bl	60d4 <wpa_supplicant_set_rekey_offload>
    40ac:	ea000140 	b	45b4 <wpa_sm_rx_eapol+0xbd4>
    40b0:	e59f0558 	ldr	r0, [pc, #1368]	; 4610 <wpa_sm_rx_eapol+0xc30>
    40b4:	eb00685b 	bl	1e228 <printf>
    40b8:	e5943104 	ldr	r3, [r4, #260]	; 0x104
    40bc:	e5930000 	ldr	r0, [r3]
    40c0:	eb000762 	bl	5e50 <wpa_supplicant_get_ssid>
    40c4:	e3500000 	cmp	r0, #0
    40c8:	0a000139 	beq	45b4 <wpa_sm_rx_eapol+0xbd4>
    40cc:	e5943104 	ldr	r3, [r4, #260]	; 0x104
    40d0:	e3a01006 	mov	r1, #6
    40d4:	e5930000 	ldr	r0, [r3]
    40d8:	eb000681 	bl	5ae4 <wpa_supplicant_set_state>
    40dc:	e28d0024 	add	r0, sp, #36	; 0x24
    40e0:	e59d1018 	ldr	r1, [sp, #24]
    40e4:	e3a0205c 	mov	r2, #92	; 0x5c
    40e8:	eb0067f1 	bl	1e0b4 <memset>
    40ec:	e5943140 	ldr	r3, [r4, #320]	; 0x140
    40f0:	e3530002 	cmp	r3, #2
    40f4:	1a000005 	bne	4110 <wpa_sm_rx_eapol+0x730>
    40f8:	e5d81061 	ldrb	r1, [r8, #97]	; 0x61
    40fc:	e5d83062 	ldrb	r3, [r8, #98]	; 0x62
    4100:	e2880063 	add	r0, r8, #99	; 0x63
    4104:	e1831401 	orr	r1, r3, r1, lsl #8
    4108:	e28d2024 	add	r2, sp, #36	; 0x24
    410c:	eb00031e 	bl	4d8c <wpa_supplicant_parse_ies>
    4110:	e59430ec 	ldr	r3, [r4, #236]	; 0xec
    4114:	e3530000 	cmp	r3, #0
    4118:	0a000005 	beq	4134 <wpa_sm_rx_eapol+0x754>
    411c:	e28400ac 	add	r0, r4, #172	; 0xac
    4120:	e3a01020 	mov	r1, #32
    4124:	eb000539 	bl	5610 <os_get_random>
    4128:	e3500000 	cmp	r0, #0
    412c:	1a000117 	bne	4590 <wpa_sm_rx_eapol+0xbb0>
    4130:	e58400ec 	str	r0, [r4, #236]	; 0xec
    4134:	e5947144 	ldr	r7, [r4, #324]	; 0x144
    4138:	e2883011 	add	r3, r8, #17
    413c:	e3570010 	cmp	r7, #16
    4140:	e594014c 	ldr	r0, [r4, #332]	; 0x14c
    4144:	13a07040 	movne	r7, #64	; 0x40
    4148:	03a07030 	moveq	r7, #48	; 0x30
    414c:	e5946020 	ldr	r6, [r4, #32]
    4150:	e58d3018 	str	r3, [sp, #24]
    4154:	ebfff1a6 	bl	7f4 <wpa_key_mgmt_sha256>
    4158:	e59d3018 	ldr	r3, [sp, #24]
    415c:	e284bf4e 	add	fp, r4, #312	; 0x138
    4160:	e1a01006 	mov	r1, r6
    4164:	e2849064 	add	r9, r4, #100	; 0x64
    4168:	e28bb002 	add	fp, fp, #2
    416c:	e28450ac 	add	r5, r4, #172	; 0xac
    4170:	e58d3008 	str	r3, [sp, #8]
    4174:	e58d7010 	str	r7, [sp, #16]
    4178:	e2843f4d 	add	r3, r4, #308	; 0x134
    417c:	e58d0014 	str	r0, [sp, #20]
    4180:	e59f248c 	ldr	r2, [pc, #1164]	; 4614 <wpa_sm_rx_eapol+0xc34>
    4184:	e1a00004 	mov	r0, r4
    4188:	e2847094 	add	r7, r4, #148	; 0x94
    418c:	e284609c 	add	r6, r4, #156	; 0x9c
    4190:	e58db000 	str	fp, [sp]
    4194:	e58d5004 	str	r5, [sp, #4]
    4198:	e58d900c 	str	r9, [sp, #12]
    419c:	ebfff003 	bl	1b0 <wpa_pmk_to_ptk>
    41a0:	e1a01007 	mov	r1, r7
    41a4:	e3a02008 	mov	r2, #8
    41a8:	e28d0080 	add	r0, sp, #128	; 0x80
    41ac:	eb0067f9 	bl	1e198 <memcpy>
    41b0:	e1a01006 	mov	r1, r6
    41b4:	e3a02008 	mov	r2, #8
    41b8:	e1a00007 	mov	r0, r7
    41bc:	eb0067f5 	bl	1e198 <memcpy>
    41c0:	e1a00006 	mov	r0, r6
    41c4:	e28d1080 	add	r1, sp, #128	; 0x80
    41c8:	e3a02008 	mov	r2, #8
    41cc:	eb0067f1 	bl	1e198 <memcpy>
    41d0:	e5943158 	ldr	r3, [r4, #344]	; 0x158
    41d4:	e58d3004 	str	r3, [sp, #4]
    41d8:	e594315c 	ldr	r3, [r4, #348]	; 0x15c
    41dc:	e3a06001 	mov	r6, #1
    41e0:	e58d3008 	str	r3, [sp, #8]
    41e4:	e58460a8 	str	r6, [r4, #168]	; 0xa8
    41e8:	e1a00004 	mov	r0, r4
    41ec:	e1a0100b 	mov	r1, fp
    41f0:	e59d201c 	ldr	r2, [sp, #28]
    41f4:	e1a0300a 	mov	r3, sl
    41f8:	e58d5000 	str	r5, [sp]
    41fc:	e58d900c 	str	r9, [sp, #12]
    4200:	ebfffd4d 	bl	373c <wpa_supplicant_send_2_of_4>
    4204:	e3500000 	cmp	r0, #0
    4208:	1a0000e0 	bne	4590 <wpa_sm_rx_eapol+0xbb0>
    420c:	e28400cc 	add	r0, r4, #204	; 0xcc
    4210:	e59d1018 	ldr	r1, [sp, #24]
    4214:	e3a02020 	mov	r2, #32
    4218:	eb0067de 	bl	1e198 <memcpy>
    421c:	ea0000e5 	b	45b8 <wpa_sm_rx_eapol+0xbd8>
    4220:	e59d3018 	ldr	r3, [sp, #24]
    4224:	e3530000 	cmp	r3, #0
    4228:	0a0000e1 	beq	45b4 <wpa_sm_rx_eapol+0xbd4>
    422c:	e59f03e4 	ldr	r0, [pc, #996]	; 4618 <wpa_sm_rx_eapol+0xc38>
    4230:	e28d60dc 	add	r6, sp, #220	; 0xdc
    4234:	eb0067fb 	bl	1e228 <printf>
    4238:	e1a01005 	mov	r1, r5
    423c:	e3a02034 	mov	r2, #52	; 0x34
    4240:	e1a00006 	mov	r0, r6
    4244:	eb00679a 	bl	1e0b4 <memset>
    4248:	e5943104 	ldr	r3, [r4, #260]	; 0x104
    424c:	e5930000 	ldr	r0, [r3]
    4250:	eb00079c 	bl	60c8 <wpa_supplicant_get_state>
    4254:	e5d83006 	ldrb	r3, [r8, #6]
    4258:	e5d89005 	ldrb	r9, [r8, #5]
    425c:	e5d85061 	ldrb	r5, [r8, #97]	; 0x61
    4260:	e1839409 	orr	r9, r3, r9, lsl #8
    4264:	e5d83062 	ldrb	r3, [r8, #98]	; 0x62
    4268:	e1835405 	orr	r5, r3, r5, lsl #8
    426c:	e5943140 	ldr	r3, [r4, #320]	; 0x140
    4270:	e3530002 	cmp	r3, #2
    4274:	e58d0018 	str	r0, [sp, #24]
    4278:	1a000026 	bne	4318 <wpa_sm_rx_eapol+0x938>
    427c:	e2880063 	add	r0, r8, #99	; 0x63
    4280:	e1a01005 	mov	r1, r5
    4284:	e28d2080 	add	r2, sp, #128	; 0x80
    4288:	eb0002bf 	bl	4d8c <wpa_supplicant_parse_ies>
    428c:	e59d3094 	ldr	r3, [sp, #148]	; 0x94
    4290:	e3530000 	cmp	r3, #0
    4294:	0a000062 	beq	4424 <wpa_sm_rx_eapol+0xa44>
    4298:	e3190a01 	tst	r9, #4096	; 0x1000
    429c:	0a000060 	beq	4424 <wpa_sm_rx_eapol+0xa44>
    42a0:	e59d1098 	ldr	r1, [sp, #152]	; 0x98
    42a4:	e2411002 	sub	r1, r1, #2
    42a8:	e5940148 	ldr	r0, [r4, #328]	; 0x148
    42ac:	e1a02001 	mov	r2, r1
    42b0:	e2863008 	add	r3, r6, #8
    42b4:	e58d110c 	str	r1, [sp, #268]	; 0x10c
    42b8:	e58d6000 	str	r6, [sp]
    42bc:	eb00983e 	bl	2a3bc <wpa_supplicant_check_group_cipher.isra.1>
    42c0:	e3500000 	cmp	r0, #0
    42c4:	1a000056 	bne	4424 <wpa_sm_rx_eapol+0xa44>
    42c8:	e59d1094 	ldr	r1, [sp, #148]	; 0x94
    42cc:	e5d13000 	ldrb	r3, [r1]
    42d0:	e2033003 	and	r3, r3, #3
    42d4:	e58d30e8 	str	r3, [sp, #232]	; 0xe8
    42d8:	e5d13000 	ldrb	r3, [r1]
    42dc:	e2133004 	ands	r3, r3, #4
    42e0:	0a000003 	beq	42f4 <wpa_sm_rx_eapol+0x914>
    42e4:	e5943144 	ldr	r3, [r4, #324]	; 0x144
    42e8:	e2430001 	sub	r0, r3, #1
    42ec:	e2703000 	rsbs	r3, r0, #0
    42f0:	e0a33000 	adc	r3, r3, r0
    42f4:	e59d2098 	ldr	r2, [sp, #152]	; 0x98
    42f8:	e2422002 	sub	r2, r2, #2
    42fc:	e3520020 	cmp	r2, #32
    4300:	e58d30e0 	str	r3, [sp, #224]	; 0xe0
    4304:	8a000046 	bhi	4424 <wpa_sm_rx_eapol+0xa44>
    4308:	e28d00ec 	add	r0, sp, #236	; 0xec
    430c:	e2811002 	add	r1, r1, #2
    4310:	eb0067a0 	bl	1e198 <memcpy>
    4314:	ea000040 	b	441c <wpa_sm_rx_eapol+0xa3c>
    4318:	e5d81007 	ldrb	r1, [r8, #7]
    431c:	e5d83008 	ldrb	r3, [r8, #8]
    4320:	e155000b 	cmp	r5, fp
    4324:	e1831401 	orr	r1, r3, r1, lsl #8
    4328:	e58d110c 	str	r1, [sp, #268]	; 0x10c
    432c:	8a00003c 	bhi	4424 <wpa_sm_rx_eapol+0xa44>
    4330:	e35a0002 	cmp	sl, #2
    4334:	11a06005 	movne	r6, r5
    4338:	1a000002 	bne	4348 <wpa_sm_rx_eapol+0x968>
    433c:	e3550007 	cmp	r5, #7
    4340:	82456008 	subhi	r6, r5, #8
    4344:	9a000036 	bls	4424 <wpa_sm_rx_eapol+0xa44>
    4348:	e28d70dc 	add	r7, sp, #220	; 0xdc
    434c:	e5940148 	ldr	r0, [r4, #328]	; 0x148
    4350:	e1a02006 	mov	r2, r6
    4354:	e2873008 	add	r3, r7, #8
    4358:	e58d7000 	str	r7, [sp]
    435c:	eb009816 	bl	2a3bc <wpa_supplicant_check_group_cipher.isra.1>
    4360:	e3500000 	cmp	r0, #0
    4364:	1a00002e 	bne	4424 <wpa_sm_rx_eapol+0xa44>
    4368:	e2093030 	and	r3, r9, #48	; 0x30
    436c:	e1a03223 	lsr	r3, r3, #4
    4370:	e35a0001 	cmp	sl, #1
    4374:	e58d30e8 	str	r3, [sp, #232]	; 0xe8
    4378:	1a000015 	bne	43d4 <wpa_sm_rx_eapol+0x9f4>
    437c:	e2881031 	add	r1, r8, #49	; 0x31
    4380:	e3a02010 	mov	r2, #16
    4384:	e28d0080 	add	r0, sp, #128	; 0x80
    4388:	eb006782 	bl	1e198 <memcpy>
    438c:	e28d0090 	add	r0, sp, #144	; 0x90
    4390:	e2841034 	add	r1, r4, #52	; 0x34
    4394:	e3a02010 	mov	r2, #16
    4398:	eb00677e 	bl	1e198 <memcpy>
    439c:	e3550020 	cmp	r5, #32
    43a0:	8a00001f 	bhi	4424 <wpa_sm_rx_eapol+0xa44>
    43a4:	e2877010 	add	r7, r7, #16
    43a8:	e2881063 	add	r1, r8, #99	; 0x63
    43ac:	e1a02005 	mov	r2, r5
    43b0:	e1a00007 	mov	r0, r7
    43b4:	eb006777 	bl	1e198 <memcpy>
    43b8:	e28d0080 	add	r0, sp, #128	; 0x80
    43bc:	e3a01020 	mov	r1, #32
    43c0:	e3a02c01 	mov	r2, #256	; 0x100
    43c4:	e1a03007 	mov	r3, r7
    43c8:	e58d5000 	str	r5, [sp]
    43cc:	ebfff792 	bl	221c <rc4_skip>
    43d0:	ea000008 	b	43f8 <wpa_sm_rx_eapol+0xa18>
    43d4:	e3150007 	tst	r5, #7
    43d8:	1a000011 	bne	4424 <wpa_sm_rx_eapol+0xa44>
    43dc:	e3560020 	cmp	r6, #32
    43e0:	8a00000f 	bhi	4424 <wpa_sm_rx_eapol+0xa44>
    43e4:	e2840034 	add	r0, r4, #52	; 0x34
    43e8:	e1a011a6 	lsr	r1, r6, #3
    43ec:	e2882063 	add	r2, r8, #99	; 0x63
    43f0:	e2873010 	add	r3, r7, #16
    43f4:	ebfff3d2 	bl	1344 <aes_unwrap>
    43f8:	e3500000 	cmp	r0, #0
    43fc:	1a000008 	bne	4424 <wpa_sm_rx_eapol+0xa44>
    4400:	e2193040 	ands	r3, r9, #64	; 0x40
    4404:	0a000003 	beq	4418 <wpa_sm_rx_eapol+0xa38>
    4408:	e5943144 	ldr	r3, [r4, #324]	; 0x144
    440c:	e2432001 	sub	r2, r3, #1
    4410:	e2723000 	rsbs	r3, r2, #0
    4414:	e0a33002 	adc	r3, r3, r2
    4418:	e58d30e0 	str	r3, [sp, #224]	; 0xe0
    441c:	e3a05000 	mov	r5, #0
    4420:	ea000000 	b	4428 <wpa_sm_rx_eapol+0xa48>
    4424:	e3e05000 	mvn	r5, #0
    4428:	e5943104 	ldr	r3, [r4, #260]	; 0x104
    442c:	e3a01007 	mov	r1, #7
    4430:	e5930000 	ldr	r0, [r3]
    4434:	eb0005aa 	bl	5ae4 <wpa_supplicant_set_state>
    4438:	e3550000 	cmp	r5, #0
    443c:	1a000053 	bne	4590 <wpa_sm_rx_eapol+0xbb0>
    4440:	e1a00004 	mov	r0, r4
    4444:	e28d10dc 	add	r1, sp, #220	; 0xdc
    4448:	e2882041 	add	r2, r8, #65	; 0x41
    444c:	eb009799 	bl	2a2b8 <wpa_supplicant_install_gtk>
    4450:	e3500000 	cmp	r0, #0
    4454:	1a00004d 	bne	4590 <wpa_sm_rx_eapol+0xbb0>
    4458:	e28d2e11 	add	r2, sp, #272	; 0x110
    445c:	e58d2000 	str	r2, [sp]
    4460:	e28d2f45 	add	r2, sp, #276	; 0x114
    4464:	e5943104 	ldr	r3, [r4, #260]	; 0x104
    4468:	e58d2004 	str	r2, [sp, #4]
    446c:	e3a01003 	mov	r1, #3
    4470:	e5930000 	ldr	r0, [r3]
    4474:	e1a02005 	mov	r2, r5
    4478:	e3a0305f 	mov	r3, #95	; 0x5f
    447c:	eb0006ee 	bl	603c <wpa_alloc_eapol>
    4480:	e2506000 	subs	r6, r0, #0
    4484:	0a000041 	beq	4590 <wpa_sm_rx_eapol+0xbb0>
    4488:	e5943140 	ldr	r3, [r4, #320]	; 0x140
    448c:	e59d0114 	ldr	r0, [sp, #276]	; 0x114
    4490:	e3530002 	cmp	r3, #2
    4494:	03a03002 	moveq	r3, #2
    4498:	13a030fe 	movne	r3, #254	; 0xfe
    449c:	e2099030 	and	r9, r9, #48	; 0x30
    44a0:	e5c03000 	strb	r3, [r0]
    44a4:	e18a9009 	orr	r9, sl, r9
    44a8:	e3a03003 	mov	r3, #3
    44ac:	e5c03001 	strb	r3, [r0, #1]
    44b0:	e5c09002 	strb	r9, [r0, #2]
    44b4:	e5943140 	ldr	r3, [r4, #320]	; 0x140
    44b8:	e3530002 	cmp	r3, #2
    44bc:	05c05003 	strbeq	r5, [r0, #3]
    44c0:	05c05004 	strbeq	r5, [r0, #4]
    44c4:	12800003 	addne	r0, r0, #3
    44c8:	12881007 	addne	r1, r8, #7
    44cc:	13a02002 	movne	r2, #2
    44d0:	1b006730 	blne	1e198 <memcpy>
    44d4:	e59d0114 	ldr	r0, [sp, #276]	; 0x114
    44d8:	e2881009 	add	r1, r8, #9
    44dc:	e3a02008 	mov	r2, #8
    44e0:	e2800005 	add	r0, r0, #5
    44e4:	eb00672b 	bl	1e198 <memcpy>
    44e8:	e59d2114 	ldr	r2, [sp, #276]	; 0x114
    44ec:	e59f1128 	ldr	r1, [pc, #296]	; 461c <wpa_sm_rx_eapol+0xc3c>
    44f0:	e3a03000 	mov	r3, #0
    44f4:	e5c2305d 	strb	r3, [r2, #93]	; 0x5d
    44f8:	e5c2305e 	strb	r3, [r2, #94]	; 0x5e
    44fc:	e88d0042 	stm	sp, {r1, r6}
    4500:	e59d1110 	ldr	r1, [sp, #272]	; 0x110
    4504:	e282204d 	add	r2, r2, #77	; 0x4d
    4508:	e2845024 	add	r5, r4, #36	; 0x24
    450c:	e2843f4e 	add	r3, r4, #312	; 0x138
    4510:	e58d1008 	str	r1, [sp, #8]
    4514:	e58d200c 	str	r2, [sp, #12]
    4518:	e1a00004 	mov	r0, r4
    451c:	e2833002 	add	r3, r3, #2
    4520:	e3a06001 	mov	r6, #1
    4524:	e1a01005 	mov	r1, r5
    4528:	e1a0200a 	mov	r2, sl
    452c:	e58d6010 	str	r6, [sp, #16]
    4530:	ebfffbf7 	bl	3514 <wpa_eapol_key_send>
    4534:	e59d3018 	ldr	r3, [sp, #24]
    4538:	e3530008 	cmp	r3, #8
    453c:	e5943104 	ldr	r3, [r4, #260]	; 0x104
    4540:	e5930000 	ldr	r0, [r3]
    4544:	1a00000b 	bne	4578 <wpa_sm_rx_eapol+0xb98>
    4548:	eb00052f 	bl	5a0c <wpa_supplicant_cancel_auth_timeout>
    454c:	e5943104 	ldr	r3, [r4, #260]	; 0x104
    4550:	e59d1018 	ldr	r1, [sp, #24]
    4554:	e5930000 	ldr	r0, [r3]
    4558:	eb000561 	bl	5ae4 <wpa_supplicant_set_state>
    455c:	e5943104 	ldr	r3, [r4, #260]	; 0x104
    4560:	e2841034 	add	r1, r4, #52	; 0x34
    4564:	e5930000 	ldr	r0, [r3]
    4568:	e1a02005 	mov	r2, r5
    456c:	e28430f0 	add	r3, r4, #240	; 0xf0
    4570:	eb0006d7 	bl	60d4 <wpa_supplicant_set_rekey_offload>
    4574:	ea00000f 	b	45b8 <wpa_sm_rx_eapol+0xbd8>
    4578:	eb000523 	bl	5a0c <wpa_supplicant_cancel_auth_timeout>
    457c:	e5943104 	ldr	r3, [r4, #260]	; 0x104
    4580:	e3a01008 	mov	r1, #8
    4584:	e5930000 	ldr	r0, [r3]
    4588:	eb000555 	bl	5ae4 <wpa_supplicant_set_state>
    458c:	ea000009 	b	45b8 <wpa_sm_rx_eapol+0xbd8>
    4590:	e5943104 	ldr	r3, [r4, #260]	; 0x104
    4594:	e3a01001 	mov	r1, #1
    4598:	e5930000 	ldr	r0, [r3]
    459c:	eb000608 	bl	5dc4 <wpa_supplicant_deauthenticate>
    45a0:	ea000003 	b	45b4 <wpa_sm_rx_eapol+0xbd4>
    45a4:	e3a06000 	mov	r6, #0
    45a8:	ea000002 	b	45b8 <wpa_sm_rx_eapol+0xbd8>
    45ac:	e3e06000 	mvn	r6, #0
    45b0:	ea000000 	b	45b8 <wpa_sm_rx_eapol+0xbd8>
    45b4:	e3a06001 	mov	r6, #1
    45b8:	e1a00008 	mov	r0, r8
    45bc:	eb000410 	bl	5604 <os_free>
    45c0:	e1a00006 	mov	r0, r6
    45c4:	e28ddf47 	add	sp, sp, #284	; 0x11c
    45c8:	e8bd8ff0 	pop	{r4, r5, r6, r7, r8, r9, sl, fp, pc}
    45cc:	e5d8b061 	ldrb	fp, [r8, #97]	; 0x61
    45d0:	e5d83062 	ldrb	r3, [r8, #98]	; 0x62
    45d4:	e183b40b 	orr	fp, r3, fp, lsl #8
    45d8:	eafffdc4 	b	3cf0 <wpa_sm_rx_eapol+0x310>
    45dc:	e28400cc 	add	r0, r4, #204	; 0xcc
    45e0:	e2881011 	add	r1, r8, #17
    45e4:	e3a02020 	mov	r2, #32
    45e8:	eb0066f2 	bl	1e1b8 <memcmp>
    45ec:	e3500000 	cmp	r0, #0
    45f0:	1affffe6 	bne	4590 <wpa_sm_rx_eapol+0xbb0>
    45f4:	eafffe11 	b	3e40 <wpa_sm_rx_eapol+0x460>
    45f8:	000258f8 	strdeq	r5, [r2], -r8
    45fc:	00025912 	andeq	r5, r2, r2, lsl r9
    4600:	00025941 	andeq	r5, r2, r1, asr #18
    4604:	00025947 	andeq	r5, r2, r7, asr #18
    4608:	0002594c 	andeq	r5, r2, ip, asr #18
    460c:	00003730 	andeq	r3, r0, r0, lsr r7
    4610:	00025967 	andeq	r5, r2, r7, ror #18
    4614:	00025981 	andeq	r5, r2, r1, lsl #19
    4618:	00025998 	muleq	r2, r8, r9
    461c:	0000888e 	andeq	r8, r0, lr, lsl #17

00004620 <wpa_sm_init>:
    4620:	e59f3018 	ldr	r3, [pc, #24]	; 4640 <wpa_sm_init+0x20>
    4624:	e3a01001 	mov	r1, #1
    4628:	e2832004 	add	r2, r3, #4
    462c:	e5830108 	str	r0, [r3, #264]	; 0x108
    4630:	e5832000 	str	r2, [r3]
    4634:	e58310f0 	str	r1, [r3, #240]	; 0xf0
    4638:	e1a00002 	mov	r0, r2
    463c:	e1a0f00e 	mov	pc, lr
    4640:	0002aaa0 	andeq	sl, r2, r0, lsr #21

00004644 <wpa_sm_deinit>:
    4644:	e92d4010 	push	{r4, lr}
    4648:	e2504000 	subs	r4, r0, #0
    464c:	08bd8010 	popeq	{r4, pc}
    4650:	e1a01004 	mov	r1, r4
    4654:	e3a02000 	mov	r2, #0
    4658:	e59f002c 	ldr	r0, [pc, #44]	; 468c <wpa_sm_deinit+0x48>
    465c:	eb0003b2 	bl	552c <eloop_cancel_timeout>
    4660:	e5940158 	ldr	r0, [r4, #344]	; 0x158
    4664:	eb0003e6 	bl	5604 <os_free>
    4668:	e5940160 	ldr	r0, [r4, #352]	; 0x160
    466c:	eb0003e4 	bl	5604 <os_free>
    4670:	e5940164 	ldr	r0, [r4, #356]	; 0x164
    4674:	eb0003e2 	bl	5604 <os_free>
    4678:	e5940104 	ldr	r0, [r4, #260]	; 0x104
    467c:	eb0003e0 	bl	5604 <os_free>
    4680:	e1a00004 	mov	r0, r4
    4684:	e8bd4010 	pop	{r4, lr}
    4688:	ea0003dd 	b	5604 <os_free>
    468c:	00003730 	andeq	r3, r0, r0, lsr r7

00004690 <wpa_sm_notify_assoc>:
    4690:	e92d4010 	push	{r4, lr}
    4694:	e2504000 	subs	r4, r0, #0
    4698:	08bd8010 	popeq	{r4, pc}
    469c:	e2840f4e 	add	r0, r4, #312	; 0x138
    46a0:	e3a02006 	mov	r2, #6
    46a4:	e2800002 	add	r0, r0, #2
    46a8:	eb0066ba 	bl	1e198 <memcpy>
    46ac:	e3a02008 	mov	r2, #8
    46b0:	e28400f0 	add	r0, r4, #240	; 0xf0
    46b4:	e3a01000 	mov	r1, #0
    46b8:	eb00667d 	bl	1e0b4 <memset>
    46bc:	e3a03000 	mov	r3, #0
    46c0:	e3a02001 	mov	r2, #1
    46c4:	e58430f8 	str	r3, [r4, #248]	; 0xf8
    46c8:	e58420ec 	str	r2, [r4, #236]	; 0xec
    46cc:	e58430a4 	str	r3, [r4, #164]	; 0xa4
    46d0:	e58430a8 	str	r3, [r4, #168]	; 0xa8
    46d4:	e8bd8010 	pop	{r4, pc}

000046d8 <wpa_sm_set_pmk>:
    46d8:	e2503000 	subs	r3, r0, #0
    46dc:	01a0f00e 	moveq	pc, lr
    46e0:	e5832020 	str	r2, [r3, #32]
    46e4:	ea0066ab 	b	1e198 <memcpy>

000046e8 <wpa_sm_set_own_addr>:
    46e8:	e3500000 	cmp	r0, #0
    46ec:	01a0f00e 	moveq	pc, lr
    46f0:	e2800f4d 	add	r0, r0, #308	; 0x134
    46f4:	e3a02006 	mov	r2, #6
    46f8:	ea0066a6 	b	1e198 <memcpy>

000046fc <wpa_sm_set_param>:
    46fc:	e3500000 	cmp	r0, #0
    4700:	03e00000 	mvneq	r0, #0
    4704:	01a0f00e 	moveq	pc, lr
    4708:	e3510004 	cmp	r1, #4
    470c:	979ff101 	ldrls	pc, [pc, r1, lsl #2]
    4710:	ea00000f 	b	4754 <wpa_sm_set_param+0x58>
    4714:	00004728 	andeq	r4, r0, r8, lsr #14
    4718:	00004730 	andeq	r4, r0, r0, lsr r7
    471c:	00004738 	andeq	r4, r0, r8, lsr r7
    4720:	00004740 	andeq	r4, r0, r0, asr #14
    4724:	00004748 	andeq	r4, r0, r8, asr #14
    4728:	e5802140 	str	r2, [r0, #320]	; 0x140
    472c:	ea000006 	b	474c <wpa_sm_set_param+0x50>
    4730:	e5802144 	str	r2, [r0, #324]	; 0x144
    4734:	ea000004 	b	474c <wpa_sm_set_param+0x50>
    4738:	e5802148 	str	r2, [r0, #328]	; 0x148
    473c:	ea000002 	b	474c <wpa_sm_set_param+0x50>
    4740:	e580214c 	str	r2, [r0, #332]	; 0x14c
    4744:	ea000000 	b	474c <wpa_sm_set_param+0x50>
    4748:	e5802154 	str	r2, [r0, #340]	; 0x154
    474c:	e3a00000 	mov	r0, #0
    4750:	e1a0f00e 	mov	pc, lr
    4754:	e3a00000 	mov	r0, #0
    4758:	e1a0f00e 	mov	pc, lr

0000475c <wpa_sm_get_param>:
    475c:	e3500000 	cmp	r0, #0
    4760:	01a0f00e 	moveq	pc, lr
    4764:	e3510004 	cmp	r1, #4
    4768:	979ff101 	ldrls	pc, [pc, r1, lsl #2]
    476c:	ea00000e 	b	47ac <wpa_sm_get_param+0x50>
    4770:	00004784 	andeq	r4, r0, r4, lsl #15
    4774:	0000478c 	andeq	r4, r0, ip, lsl #15
    4778:	00004794 	muleq	r0, r4, r7
    477c:	0000479c 	muleq	r0, ip, r7
    4780:	000047a4 	andeq	r4, r0, r4, lsr #15
    4784:	e5900140 	ldr	r0, [r0, #320]	; 0x140
    4788:	e1a0f00e 	mov	pc, lr
    478c:	e5900144 	ldr	r0, [r0, #324]	; 0x144
    4790:	e1a0f00e 	mov	pc, lr
    4794:	e5900148 	ldr	r0, [r0, #328]	; 0x148
    4798:	e1a0f00e 	mov	pc, lr
    479c:	e590014c 	ldr	r0, [r0, #332]	; 0x14c
    47a0:	e1a0f00e 	mov	pc, lr
    47a4:	e5900154 	ldr	r0, [r0, #340]	; 0x154
    47a8:	e1a0f00e 	mov	pc, lr
    47ac:	e3a00000 	mov	r0, #0
    47b0:	e1a0f00e 	mov	pc, lr

000047b4 <wpa_sm_set_assoc_wpa_ie_default>:
    47b4:	e92d4070 	push	{r4, r5, r6, lr}
    47b8:	e2504000 	subs	r4, r0, #0
    47bc:	e1a06001 	mov	r6, r1
    47c0:	e1a05002 	mov	r5, r2
    47c4:	0a000013 	beq	4818 <wpa_sm_set_assoc_wpa_ie_default+0x64>
    47c8:	e5922000 	ldr	r2, [r2]
    47cc:	eb000090 	bl	4a14 <wpa_gen_wpa_ie>
    47d0:	e2503000 	subs	r3, r0, #0
    47d4:	ba00000f 	blt	4818 <wpa_sm_set_assoc_wpa_ie_default+0x64>
    47d8:	e5853000 	str	r3, [r5]
    47dc:	e5943158 	ldr	r3, [r4, #344]	; 0x158
    47e0:	e3530000 	cmp	r3, #0
    47e4:	1a000003 	bne	47f8 <wpa_sm_set_assoc_wpa_ie_default+0x44>
    47e8:	eb000380 	bl	55f0 <os_malloc>
    47ec:	e3500000 	cmp	r0, #0
    47f0:	e5840158 	str	r0, [r4, #344]	; 0x158
    47f4:	0a000009 	beq	4820 <wpa_sm_set_assoc_wpa_ie_default+0x6c>
    47f8:	e5940158 	ldr	r0, [r4, #344]	; 0x158
    47fc:	e1a01006 	mov	r1, r6
    4800:	e5952000 	ldr	r2, [r5]
    4804:	eb006663 	bl	1e198 <memcpy>
    4808:	e5953000 	ldr	r3, [r5]
    480c:	e3a00000 	mov	r0, #0
    4810:	e584315c 	str	r3, [r4, #348]	; 0x15c
    4814:	e8bd8070 	pop	{r4, r5, r6, pc}
    4818:	e3e00000 	mvn	r0, #0
    481c:	e8bd8070 	pop	{r4, r5, r6, pc}
    4820:	e3e00000 	mvn	r0, #0
    4824:	e8bd8070 	pop	{r4, r5, r6, pc}

00004828 <wpa_sm_set_assoc_wpa_ie>:
    4828:	e92d40f8 	push	{r3, r4, r5, r6, r7, lr}
    482c:	e2504000 	subs	r4, r0, #0
    4830:	e1a07001 	mov	r7, r1
    4834:	e1a05002 	mov	r5, r2
    4838:	03e00000 	mvneq	r0, #0
    483c:	08bd80f8 	popeq	{r3, r4, r5, r6, r7, pc}
    4840:	e5940158 	ldr	r0, [r4, #344]	; 0x158
    4844:	eb00036e 	bl	5604 <os_free>
    4848:	e3570000 	cmp	r7, #0
    484c:	13550000 	cmpne	r5, #0
    4850:	03a00000 	moveq	r0, #0
    4854:	13a06000 	movne	r6, #0
    4858:	03a06001 	moveq	r6, #1
    485c:	05840158 	streq	r0, [r4, #344]	; 0x158
    4860:	0584015c 	streq	r0, [r4, #348]	; 0x15c
    4864:	08bd80f8 	popeq	{r3, r4, r5, r6, r7, pc}
    4868:	e1a00005 	mov	r0, r5
    486c:	eb00035f 	bl	55f0 <os_malloc>
    4870:	e3500000 	cmp	r0, #0
    4874:	e5840158 	str	r0, [r4, #344]	; 0x158
    4878:	0a000005 	beq	4894 <wpa_sm_set_assoc_wpa_ie+0x6c>
    487c:	e1a01007 	mov	r1, r7
    4880:	e1a02005 	mov	r2, r5
    4884:	eb006643 	bl	1e198 <memcpy>
    4888:	e584515c 	str	r5, [r4, #348]	; 0x15c
    488c:	e1a00006 	mov	r0, r6
    4890:	e8bd80f8 	pop	{r3, r4, r5, r6, r7, pc}
    4894:	e3e00000 	mvn	r0, #0
    4898:	e8bd80f8 	pop	{r3, r4, r5, r6, r7, pc}

0000489c <wpa_sm_set_ap_wpa_ie>:
    489c:	e92d40f8 	push	{r3, r4, r5, r6, r7, lr}
    48a0:	e2504000 	subs	r4, r0, #0
    48a4:	e1a07001 	mov	r7, r1
    48a8:	e1a05002 	mov	r5, r2
    48ac:	03e00000 	mvneq	r0, #0
    48b0:	08bd80f8 	popeq	{r3, r4, r5, r6, r7, pc}
    48b4:	e5940160 	ldr	r0, [r4, #352]	; 0x160
    48b8:	eb000351 	bl	5604 <os_free>
    48bc:	e3570000 	cmp	r7, #0
    48c0:	13550000 	cmpne	r5, #0
    48c4:	03a00000 	moveq	r0, #0
    48c8:	13a06000 	movne	r6, #0
    48cc:	03a06001 	moveq	r6, #1
    48d0:	05840160 	streq	r0, [r4, #352]	; 0x160
    48d4:	05840168 	streq	r0, [r4, #360]	; 0x168
    48d8:	08bd80f8 	popeq	{r3, r4, r5, r6, r7, pc}
    48dc:	e1a00005 	mov	r0, r5
    48e0:	eb000342 	bl	55f0 <os_malloc>
    48e4:	e3500000 	cmp	r0, #0
    48e8:	e5840160 	str	r0, [r4, #352]	; 0x160
    48ec:	0a000005 	beq	4908 <wpa_sm_set_ap_wpa_ie+0x6c>
    48f0:	e1a01007 	mov	r1, r7
    48f4:	e1a02005 	mov	r2, r5
    48f8:	eb006626 	bl	1e198 <memcpy>
    48fc:	e5845168 	str	r5, [r4, #360]	; 0x168
    4900:	e1a00006 	mov	r0, r6
    4904:	e8bd80f8 	pop	{r3, r4, r5, r6, r7, pc}
    4908:	e3e00000 	mvn	r0, #0
    490c:	e8bd80f8 	pop	{r3, r4, r5, r6, r7, pc}

00004910 <wpa_sm_set_ap_rsn_ie>:
    4910:	e92d40f8 	push	{r3, r4, r5, r6, r7, lr}
    4914:	e2504000 	subs	r4, r0, #0
    4918:	e1a07001 	mov	r7, r1
    491c:	e1a05002 	mov	r5, r2
    4920:	03e00000 	mvneq	r0, #0
    4924:	08bd80f8 	popeq	{r3, r4, r5, r6, r7, pc}
    4928:	e5940164 	ldr	r0, [r4, #356]	; 0x164
    492c:	eb000334 	bl	5604 <os_free>
    4930:	e3570000 	cmp	r7, #0
    4934:	13550000 	cmpne	r5, #0
    4938:	03a00000 	moveq	r0, #0
    493c:	13a06000 	movne	r6, #0
    4940:	03a06001 	moveq	r6, #1
    4944:	05840164 	streq	r0, [r4, #356]	; 0x164
    4948:	0584016c 	streq	r0, [r4, #364]	; 0x16c
    494c:	08bd80f8 	popeq	{r3, r4, r5, r6, r7, pc}
    4950:	e1a00005 	mov	r0, r5
    4954:	eb000325 	bl	55f0 <os_malloc>
    4958:	e3500000 	cmp	r0, #0
    495c:	e5840164 	str	r0, [r4, #356]	; 0x164
    4960:	0a000005 	beq	497c <wpa_sm_set_ap_rsn_ie+0x6c>
    4964:	e1a01007 	mov	r1, r7
    4968:	e1a02005 	mov	r2, r5
    496c:	eb006609 	bl	1e198 <memcpy>
    4970:	e584516c 	str	r5, [r4, #364]	; 0x16c
    4974:	e1a00006 	mov	r0, r6
    4978:	e8bd80f8 	pop	{r3, r4, r5, r6, r7, pc}
    497c:	e3e00000 	mvn	r0, #0
    4980:	e8bd80f8 	pop	{r3, r4, r5, r6, r7, pc}

00004984 <wpa_sm_parse_own_wpa_ie>:
    4984:	e92d4008 	push	{r3, lr}
    4988:	e2503000 	subs	r3, r0, #0
    498c:	e1a02001 	mov	r2, r1
    4990:	03e00000 	mvneq	r0, #0
    4994:	08bd8008 	popeq	{r3, pc}
    4998:	e5930158 	ldr	r0, [r3, #344]	; 0x158
    499c:	e3500000 	cmp	r0, #0
    49a0:	0a000004 	beq	49b8 <wpa_sm_parse_own_wpa_ie+0x34>
    49a4:	e593115c 	ldr	r1, [r3, #348]	; 0x15c
    49a8:	eb00000a 	bl	49d8 <wpa_parse_wpa_ie>
    49ac:	e3500000 	cmp	r0, #0
    49b0:	13e00001 	mvnne	r0, #1
    49b4:	e8bd8008 	pop	{r3, pc}
    49b8:	e3e00000 	mvn	r0, #0
    49bc:	e8bd8008 	pop	{r3, pc}

000049c0 <wpa_sm_has_ptk>:
    49c0:	e3500000 	cmp	r0, #0
    49c4:	159000a4 	ldrne	r0, [r0, #164]	; 0xa4
    49c8:	e1a0f00e 	mov	pc, lr

000049cc <wpa_sm_update_replay_ctr>:
    49cc:	e28000f0 	add	r0, r0, #240	; 0xf0
    49d0:	e3a02008 	mov	r2, #8
    49d4:	ea0065ef 	b	1e198 <memcpy>

000049d8 <wpa_parse_wpa_ie>:
    49d8:	e92d4030 	push	{r4, r5, lr}
    49dc:	e2514000 	subs	r4, r1, #0
    49e0:	e1a03000 	mov	r3, r0
    49e4:	e1a0c002 	mov	ip, r2
    49e8:	0a000004 	beq	4a00 <wpa_parse_wpa_ie+0x28>
    49ec:	e5d05000 	ldrb	r5, [r0]
    49f0:	e3550030 	cmp	r5, #48	; 0x30
    49f4:	1a000001 	bne	4a00 <wpa_parse_wpa_ie+0x28>
    49f8:	e8bd4030 	pop	{r4, r5, lr}
    49fc:	eaffee29 	b	2a8 <wpa_parse_wpa_ie_rsn>
    4a00:	e1a00003 	mov	r0, r3
    4a04:	e1a01004 	mov	r1, r4
    4a08:	e1a0200c 	mov	r2, ip
    4a0c:	e8bd4030 	pop	{r4, r5, lr}
    4a10:	eaffeea4 	b	4a8 <wpa_parse_wpa_ie_wpa>

00004a14 <wpa_gen_wpa_ie>:
    4a14:	e92d40f8 	push	{r3, r4, r5, r6, r7, lr}
    4a18:	e5906140 	ldr	r6, [r0, #320]	; 0x140
    4a1c:	e2804f51 	add	r4, r0, #324	; 0x144
    4a20:	e3560002 	cmp	r6, #2
    4a24:	e8941010 	ldm	r4, {r4, ip}
    4a28:	e590314c 	ldr	r3, [r0, #332]	; 0x14c
    4a2c:	1a000065 	bne	4bc8 <wpa_gen_wpa_ie+0x1b4>
    4a30:	e3520015 	cmp	r2, #21
    4a34:	9a0000cb 	bls	4d68 <wpa_gen_wpa_ie+0x354>
    4a38:	e3a00030 	mov	r0, #48	; 0x30
    4a3c:	e5c10000 	strb	r0, [r1]
    4a40:	e3a05001 	mov	r5, #1
    4a44:	e3a00000 	mov	r0, #0
    4a48:	e35c0010 	cmp	ip, #16
    4a4c:	e5c10003 	strb	r0, [r1, #3]
    4a50:	e5c15002 	strb	r5, [r1, #2]
    4a54:	1a000006 	bne	4a74 <wpa_gen_wpa_ie+0x60>
    4a58:	e5c10004 	strb	r0, [r1, #4]
    4a5c:	e3a0000f 	mov	r0, #15
    4a60:	e5c10005 	strb	r0, [r1, #5]
    4a64:	e3e00053 	mvn	r0, #83	; 0x53
    4a68:	e5c10006 	strb	r0, [r1, #6]
    4a6c:	e3a00004 	mov	r0, #4
    4a70:	ea000010 	b	4ab8 <wpa_gen_wpa_ie+0xa4>
    4a74:	e35c0008 	cmp	ip, #8
    4a78:	1a000006 	bne	4a98 <wpa_gen_wpa_ie+0x84>
    4a7c:	e5c10004 	strb	r0, [r1, #4]
    4a80:	e3a0000f 	mov	r0, #15
    4a84:	e5c10005 	strb	r0, [r1, #5]
    4a88:	e3e00053 	mvn	r0, #83	; 0x53
    4a8c:	e5c10006 	strb	r0, [r1, #6]
    4a90:	e5c16007 	strb	r6, [r1, #7]
    4a94:	ea000011 	b	4ae0 <wpa_gen_wpa_ie+0xcc>
    4a98:	e35c0004 	cmp	ip, #4
    4a9c:	1a000007 	bne	4ac0 <wpa_gen_wpa_ie+0xac>
    4aa0:	e5c10004 	strb	r0, [r1, #4]
    4aa4:	e3a0000f 	mov	r0, #15
    4aa8:	e5c10005 	strb	r0, [r1, #5]
    4aac:	e3e00053 	mvn	r0, #83	; 0x53
    4ab0:	e5c10006 	strb	r0, [r1, #6]
    4ab4:	e3a00005 	mov	r0, #5
    4ab8:	e5c10007 	strb	r0, [r1, #7]
    4abc:	ea000007 	b	4ae0 <wpa_gen_wpa_ie+0xcc>
    4ac0:	e35c0002 	cmp	ip, #2
    4ac4:	1a0000a7 	bne	4d68 <wpa_gen_wpa_ie+0x354>
    4ac8:	e5c10004 	strb	r0, [r1, #4]
    4acc:	e3a0000f 	mov	r0, #15
    4ad0:	e5c10005 	strb	r0, [r1, #5]
    4ad4:	e3e00053 	mvn	r0, #83	; 0x53
    4ad8:	e5c10006 	strb	r0, [r1, #6]
    4adc:	e5c15007 	strb	r5, [r1, #7]
    4ae0:	e3a00001 	mov	r0, #1
    4ae4:	e5c10008 	strb	r0, [r1, #8]
    4ae8:	e3540010 	cmp	r4, #16
    4aec:	e3a00000 	mov	r0, #0
    4af0:	e5c10009 	strb	r0, [r1, #9]
    4af4:	1a000006 	bne	4b14 <wpa_gen_wpa_ie+0x100>
    4af8:	e5c1000a 	strb	r0, [r1, #10]
    4afc:	e3a0000f 	mov	r0, #15
    4b00:	e5c1000b 	strb	r0, [r1, #11]
    4b04:	e3e00053 	mvn	r0, #83	; 0x53
    4b08:	e5c1000c 	strb	r0, [r1, #12]
    4b0c:	e3a00004 	mov	r0, #4
    4b10:	ea00000f 	b	4b54 <wpa_gen_wpa_ie+0x140>
    4b14:	e3540008 	cmp	r4, #8
    4b18:	1a000006 	bne	4b38 <wpa_gen_wpa_ie+0x124>
    4b1c:	e5c1000a 	strb	r0, [r1, #10]
    4b20:	e3a0000f 	mov	r0, #15
    4b24:	e5c1000b 	strb	r0, [r1, #11]
    4b28:	e3e00053 	mvn	r0, #83	; 0x53
    4b2c:	e5c1000c 	strb	r0, [r1, #12]
    4b30:	e3a00002 	mov	r0, #2
    4b34:	ea000006 	b	4b54 <wpa_gen_wpa_ie+0x140>
    4b38:	e3540001 	cmp	r4, #1
    4b3c:	1a000089 	bne	4d68 <wpa_gen_wpa_ie+0x354>
    4b40:	e3a0c00f 	mov	ip, #15
    4b44:	e5c1c00b 	strb	ip, [r1, #11]
    4b48:	e3e0c053 	mvn	ip, #83	; 0x53
    4b4c:	e5c1000a 	strb	r0, [r1, #10]
    4b50:	e5c1c00c 	strb	ip, [r1, #12]
    4b54:	e5c1000d 	strb	r0, [r1, #13]
    4b58:	e3a00001 	mov	r0, #1
    4b5c:	e5c1000e 	strb	r0, [r1, #14]
    4b60:	e3530001 	cmp	r3, #1
    4b64:	e3a00000 	mov	r0, #0
    4b68:	e5c1000f 	strb	r0, [r1, #15]
    4b6c:	0a000001 	beq	4b78 <wpa_gen_wpa_ie+0x164>
    4b70:	e3530002 	cmp	r3, #2
    4b74:	1a00007b 	bne	4d68 <wpa_gen_wpa_ie+0x354>
    4b78:	e5c10010 	strb	r0, [r1, #16]
    4b7c:	e3a0000f 	mov	r0, #15
    4b80:	e5c10011 	strb	r0, [r1, #17]
    4b84:	e3e00053 	mvn	r0, #83	; 0x53
    4b88:	e5c10012 	strb	r0, [r1, #18]
    4b8c:	e5c13013 	strb	r3, [r1, #19]
    4b90:	e3a00000 	mov	r0, #0
    4b94:	e1a03001 	mov	r3, r1
    4b98:	e5c10015 	strb	r0, [r1, #21]
    4b9c:	e5e30014 	strb	r0, [r3, #20]!
    4ba0:	e3a00016 	mov	r0, #22
    4ba4:	e0613003 	rsb	r3, r1, r3
    4ba8:	e1500002 	cmp	r0, r2
    4bac:	e5c13001 	strb	r3, [r1, #1]
    4bb0:	98bd80f8 	popls	{r3, r4, r5, r6, r7, pc}
    4bb4:	e59f01bc 	ldr	r0, [pc, #444]	; 4d78 <wpa_gen_wpa_ie+0x364>
    4bb8:	e59f11bc 	ldr	r1, [pc, #444]	; 4d7c <wpa_gen_wpa_ie+0x368>
    4bbc:	e59f21bc 	ldr	r2, [pc, #444]	; 4d80 <wpa_gen_wpa_ie+0x36c>
    4bc0:	e3a030d4 	mov	r3, #212	; 0xd4
    4bc4:	ea000065 	b	4d60 <wpa_gen_wpa_ie+0x34c>
    4bc8:	e3520017 	cmp	r2, #23
    4bcc:	9a000065 	bls	4d68 <wpa_gen_wpa_ie+0x354>
    4bd0:	e3e00022 	mvn	r0, #34	; 0x22
    4bd4:	e3a07001 	mov	r7, #1
    4bd8:	e5c10000 	strb	r0, [r1]
    4bdc:	e3a06050 	mov	r6, #80	; 0x50
    4be0:	e3a00000 	mov	r0, #0
    4be4:	e3e0500d 	mvn	r5, #13
    4be8:	e35c0010 	cmp	ip, #16
    4bec:	e5c10002 	strb	r0, [r1, #2]
    4bf0:	e5c16003 	strb	r6, [r1, #3]
    4bf4:	e5c15004 	strb	r5, [r1, #4]
    4bf8:	e5c17005 	strb	r7, [r1, #5]
    4bfc:	e5c10007 	strb	r0, [r1, #7]
    4c00:	e5c17006 	strb	r7, [r1, #6]
    4c04:	05c10008 	strbeq	r0, [r1, #8]
    4c08:	05c16009 	strbeq	r6, [r1, #9]
    4c0c:	05c1500a 	strbeq	r5, [r1, #10]
    4c10:	03a00004 	moveq	r0, #4
    4c14:	0a000005 	beq	4c30 <wpa_gen_wpa_ie+0x21c>
    4c18:	e35c0008 	cmp	ip, #8
    4c1c:	1a000005 	bne	4c38 <wpa_gen_wpa_ie+0x224>
    4c20:	e5c16009 	strb	r6, [r1, #9]
    4c24:	e5c1500a 	strb	r5, [r1, #10]
    4c28:	e5c10008 	strb	r0, [r1, #8]
    4c2c:	e3a00002 	mov	r0, #2
    4c30:	e5c1000b 	strb	r0, [r1, #11]
    4c34:	ea00000b 	b	4c68 <wpa_gen_wpa_ie+0x254>
    4c38:	e35c0004 	cmp	ip, #4
    4c3c:	05c10008 	strbeq	r0, [r1, #8]
    4c40:	05c16009 	strbeq	r6, [r1, #9]
    4c44:	05c1500a 	strbeq	r5, [r1, #10]
    4c48:	03a00005 	moveq	r0, #5
    4c4c:	0afffff7 	beq	4c30 <wpa_gen_wpa_ie+0x21c>
    4c50:	e35c0002 	cmp	ip, #2
    4c54:	1a000043 	bne	4d68 <wpa_gen_wpa_ie+0x354>
    4c58:	e5c10008 	strb	r0, [r1, #8]
    4c5c:	e5c16009 	strb	r6, [r1, #9]
    4c60:	e5c1500a 	strb	r5, [r1, #10]
    4c64:	e5c1700b 	strb	r7, [r1, #11]
    4c68:	e3a00001 	mov	r0, #1
    4c6c:	e5c1000c 	strb	r0, [r1, #12]
    4c70:	e3540010 	cmp	r4, #16
    4c74:	e3a00000 	mov	r0, #0
    4c78:	e5c1000d 	strb	r0, [r1, #13]
    4c7c:	1a000006 	bne	4c9c <wpa_gen_wpa_ie+0x288>
    4c80:	e5c1000e 	strb	r0, [r1, #14]
    4c84:	e3a00050 	mov	r0, #80	; 0x50
    4c88:	e5c1000f 	strb	r0, [r1, #15]
    4c8c:	e3e0000d 	mvn	r0, #13
    4c90:	e5c10010 	strb	r0, [r1, #16]
    4c94:	e3a00004 	mov	r0, #4
    4c98:	ea00000f 	b	4cdc <wpa_gen_wpa_ie+0x2c8>
    4c9c:	e3540008 	cmp	r4, #8
    4ca0:	1a000006 	bne	4cc0 <wpa_gen_wpa_ie+0x2ac>
    4ca4:	e5c1000e 	strb	r0, [r1, #14]
    4ca8:	e3a00050 	mov	r0, #80	; 0x50
    4cac:	e5c1000f 	strb	r0, [r1, #15]
    4cb0:	e3e0000d 	mvn	r0, #13
    4cb4:	e5c10010 	strb	r0, [r1, #16]
    4cb8:	e3a00002 	mov	r0, #2
    4cbc:	ea000006 	b	4cdc <wpa_gen_wpa_ie+0x2c8>
    4cc0:	e3540001 	cmp	r4, #1
    4cc4:	1a000027 	bne	4d68 <wpa_gen_wpa_ie+0x354>
    4cc8:	e3a0c050 	mov	ip, #80	; 0x50
    4ccc:	e5c1c00f 	strb	ip, [r1, #15]
    4cd0:	e3e0c00d 	mvn	ip, #13
    4cd4:	e5c1000e 	strb	r0, [r1, #14]
    4cd8:	e5c1c010 	strb	ip, [r1, #16]
    4cdc:	e5c10011 	strb	r0, [r1, #17]
    4ce0:	e3a00001 	mov	r0, #1
    4ce4:	e5c10012 	strb	r0, [r1, #18]
    4ce8:	e3530001 	cmp	r3, #1
    4cec:	e3a00000 	mov	r0, #0
    4cf0:	e5c10013 	strb	r0, [r1, #19]
    4cf4:	0a000001 	beq	4d00 <wpa_gen_wpa_ie+0x2ec>
    4cf8:	e3530002 	cmp	r3, #2
    4cfc:	1a000006 	bne	4d1c <wpa_gen_wpa_ie+0x308>
    4d00:	e5c10014 	strb	r0, [r1, #20]
    4d04:	e3a00050 	mov	r0, #80	; 0x50
    4d08:	e5c10015 	strb	r0, [r1, #21]
    4d0c:	e3e0000d 	mvn	r0, #13
    4d10:	e5c10016 	strb	r0, [r1, #22]
    4d14:	e5c13017 	strb	r3, [r1, #23]
    4d18:	ea000007 	b	4d3c <wpa_gen_wpa_ie+0x328>
    4d1c:	e3530010 	cmp	r3, #16
    4d20:	1a000012 	bne	4d70 <wpa_gen_wpa_ie+0x35c>
    4d24:	e3a03050 	mov	r3, #80	; 0x50
    4d28:	e5c13015 	strb	r3, [r1, #21]
    4d2c:	e3e0300d 	mvn	r3, #13
    4d30:	e5c10014 	strb	r0, [r1, #20]
    4d34:	e5c13016 	strb	r3, [r1, #22]
    4d38:	e5c10017 	strb	r0, [r1, #23]
    4d3c:	e3a00018 	mov	r0, #24
    4d40:	e3a03016 	mov	r3, #22
    4d44:	e1500002 	cmp	r0, r2
    4d48:	e5c13001 	strb	r3, [r1, #1]
    4d4c:	98bd80f8 	popls	{r3, r4, r5, r6, r7, pc}
    4d50:	e59f002c 	ldr	r0, [pc, #44]	; 4d84 <wpa_gen_wpa_ie+0x370>
    4d54:	e59f1020 	ldr	r1, [pc, #32]	; 4d7c <wpa_gen_wpa_ie+0x368>
    4d58:	e59f2028 	ldr	r2, [pc, #40]	; 4d88 <wpa_gen_wpa_ie+0x374>
    4d5c:	e3a0306d 	mov	r3, #109	; 0x6d
    4d60:	eb006530 	bl	1e228 <printf>
    4d64:	eb005662 	bl	1a6f4 <stop_and_halt>
    4d68:	e3e00000 	mvn	r0, #0
    4d6c:	e8bd80f8 	pop	{r3, r4, r5, r6, r7, pc}
    4d70:	e3e00000 	mvn	r0, #0
    4d74:	e8bd80f8 	pop	{r3, r4, r5, r6, r7, pc}
    4d78:	000259b6 			; <UNDEFINED> instruction: 0x000259b6
    4d7c:	00025a07 	andeq	r5, r2, r7, lsl #20
    4d80:	00024513 	andeq	r4, r2, r3, lsl r5
    4d84:	00025a10 	andeq	r5, r2, r0, lsl sl
    4d88:	00024526 	andeq	r4, r2, r6, lsr #10

00004d8c <wpa_supplicant_parse_ies>:
    4d8c:	e92d45f8 	push	{r3, r4, r5, r6, r7, r8, sl, lr}
    4d90:	e1a06000 	mov	r6, r0
    4d94:	e1a05001 	mov	r5, r1
    4d98:	e1a00002 	mov	r0, r2
    4d9c:	e3a01000 	mov	r1, #0
    4da0:	e1a04002 	mov	r4, r2
    4da4:	e3a0205c 	mov	r2, #92	; 0x5c
    4da8:	eb0064c1 	bl	1e0b4 <memset>
    4dac:	e0862005 	add	r2, r6, r5
    4db0:	e2455001 	sub	r5, r5, #1
    4db4:	e0865005 	add	r5, r6, r5
    4db8:	e59f8254 	ldr	r8, [pc, #596]	; 5014 <wpa_supplicant_parse_ies+0x288>
    4dbc:	e59f7254 	ldr	r7, [pc, #596]	; 5018 <wpa_supplicant_parse_ies+0x28c>
    4dc0:	e59fc254 	ldr	ip, [pc, #596]	; 501c <wpa_supplicant_parse_ies+0x290>
    4dc4:	e59f1254 	ldr	r1, [pc, #596]	; 5020 <wpa_supplicant_parse_ies+0x294>
    4dc8:	ea00008a 	b	4ff8 <wpa_supplicant_parse_ies+0x26c>
    4dcc:	e5d63000 	ldrb	r3, [r6]
    4dd0:	e35300dd 	cmp	r3, #221	; 0xdd
    4dd4:	1a000004 	bne	4dec <wpa_supplicant_parse_ies+0x60>
    4dd8:	e1560005 	cmp	r6, r5
    4ddc:	0a000088 	beq	5004 <wpa_supplicant_parse_ies+0x278>
    4de0:	e5d60001 	ldrb	r0, [r6, #1]
    4de4:	e3500000 	cmp	r0, #0
    4de8:	08bd85f8 	popeq	{r3, r4, r5, r6, r7, r8, sl, pc}
    4dec:	e5d60001 	ldrb	r0, [r6, #1]
    4df0:	e280a002 	add	sl, r0, #2
    4df4:	e086a00a 	add	sl, r6, sl
    4df8:	e152000a 	cmp	r2, sl
    4dfc:	3a000082 	bcc	500c <wpa_supplicant_parse_ies+0x280>
    4e00:	e3530030 	cmp	r3, #48	; 0x30
    4e04:	05846008 	streq	r6, [r4, #8]
    4e08:	05d63001 	ldrbeq	r3, [r6, #1]
    4e0c:	02833002 	addeq	r3, r3, #2
    4e10:	0584300c 	streq	r3, [r4, #12]
    4e14:	0a000074 	beq	4fec <wpa_supplicant_parse_ies+0x260>
    4e18:	e3530036 	cmp	r3, #54	; 0x36
    4e1c:	05846024 	streq	r6, [r4, #36]	; 0x24
    4e20:	05d63001 	ldrbeq	r3, [r6, #1]
    4e24:	02833002 	addeq	r3, r3, #2
    4e28:	05843028 	streq	r3, [r4, #40]	; 0x28
    4e2c:	0a00006e 	beq	4fec <wpa_supplicant_parse_ies+0x260>
    4e30:	e3530037 	cmp	r3, #55	; 0x37
    4e34:	0584602c 	streq	r6, [r4, #44]	; 0x2c
    4e38:	05d63001 	ldrbeq	r3, [r6, #1]
    4e3c:	02833002 	addeq	r3, r3, #2
    4e40:	05843030 	streq	r3, [r4, #48]	; 0x30
    4e44:	0a000068 	beq	4fec <wpa_supplicant_parse_ies+0x260>
    4e48:	e3530038 	cmp	r3, #56	; 0x38
    4e4c:	1a000008 	bne	4e74 <wpa_supplicant_parse_ies+0xe8>
    4e50:	e3500004 	cmp	r0, #4
    4e54:	9a000064 	bls	4fec <wpa_supplicant_parse_ies+0x260>
    4e58:	e5d63002 	ldrb	r3, [r6, #2]
    4e5c:	e3530001 	cmp	r3, #1
    4e60:	05846034 	streq	r6, [r4, #52]	; 0x34
    4e64:	0a000060 	beq	4fec <wpa_supplicant_parse_ies+0x260>
    4e68:	e3530002 	cmp	r3, #2
    4e6c:	05846038 	streq	r6, [r4, #56]	; 0x38
    4e70:	ea00005d 	b	4fec <wpa_supplicant_parse_ies+0x260>
    4e74:	e3530065 	cmp	r3, #101	; 0x65
    4e78:	1a000005 	bne	4e94 <wpa_supplicant_parse_ies+0x108>
    4e7c:	e3500011 	cmp	r0, #17
    4e80:	8584603c 	strhi	r6, [r4, #60]	; 0x3c
    4e84:	85d63001 	ldrbhi	r3, [r6, #1]
    4e88:	82833002 	addhi	r3, r3, #2
    4e8c:	85843040 	strhi	r3, [r4, #64]	; 0x40
    4e90:	ea000055 	b	4fec <wpa_supplicant_parse_ies+0x260>
    4e94:	e353007f 	cmp	r3, #127	; 0x7f
    4e98:	05846044 	streq	r6, [r4, #68]	; 0x44
    4e9c:	05d63001 	ldrbeq	r3, [r6, #1]
    4ea0:	02833002 	addeq	r3, r3, #2
    4ea4:	05843048 	streq	r3, [r4, #72]	; 0x48
    4ea8:	0a00004f 	beq	4fec <wpa_supplicant_parse_ies+0x260>
    4eac:	e3530001 	cmp	r3, #1
    4eb0:	0584604c 	streq	r6, [r4, #76]	; 0x4c
    4eb4:	05d63001 	ldrbeq	r3, [r6, #1]
    4eb8:	02833002 	addeq	r3, r3, #2
    4ebc:	05843050 	streq	r3, [r4, #80]	; 0x50
    4ec0:	0a000049 	beq	4fec <wpa_supplicant_parse_ies+0x260>
    4ec4:	e3530032 	cmp	r3, #50	; 0x32
    4ec8:	05846054 	streq	r6, [r4, #84]	; 0x54
    4ecc:	05d63001 	ldrbeq	r3, [r6, #1]
    4ed0:	02833002 	addeq	r3, r3, #2
    4ed4:	05843058 	streq	r3, [r4, #88]	; 0x58
    4ed8:	0a000043 	beq	4fec <wpa_supplicant_parse_ies+0x260>
    4edc:	e35300dd 	cmp	r3, #221	; 0xdd
    4ee0:	1a000041 	bne	4fec <wpa_supplicant_parse_ies+0x260>
    4ee4:	e3500000 	cmp	r0, #0
    4ee8:	08bd85f8 	popeq	{r3, r4, r5, r6, r7, r8, sl, pc}
    4eec:	e3500005 	cmp	r0, #5
    4ef0:	9a000013 	bls	4f44 <wpa_supplicant_parse_ies+0x1b8>
    4ef4:	e5d63003 	ldrb	r3, [r6, #3]
    4ef8:	e5d6a002 	ldrb	sl, [r6, #2]
    4efc:	e1a03803 	lsl	r3, r3, #16
    4f00:	e1833c0a 	orr	r3, r3, sl, lsl #24
    4f04:	e5d6a005 	ldrb	sl, [r6, #5]
    4f08:	e183300a 	orr	r3, r3, sl
    4f0c:	e5d6a004 	ldrb	sl, [r6, #4]
    4f10:	e183340a 	orr	r3, r3, sl, lsl #8
    4f14:	e1530001 	cmp	r3, r1
    4f18:	1a000009 	bne	4f44 <wpa_supplicant_parse_ies+0x1b8>
    4f1c:	e5d63006 	ldrb	r3, [r6, #6]
    4f20:	e3530001 	cmp	r3, #1
    4f24:	1a000006 	bne	4f44 <wpa_supplicant_parse_ies+0x1b8>
    4f28:	e5d63007 	ldrb	r3, [r6, #7]
    4f2c:	e3530000 	cmp	r3, #0
    4f30:	05846000 	streq	r6, [r4]
    4f34:	05d63001 	ldrbeq	r3, [r6, #1]
    4f38:	02833002 	addeq	r3, r3, #2
    4f3c:	05843004 	streq	r3, [r4, #4]
    4f40:	0a000029 	beq	4fec <wpa_supplicant_parse_ies+0x260>
    4f44:	e2863005 	add	r3, r6, #5
    4f48:	e1520003 	cmp	r2, r3
    4f4c:	9a00000e 	bls	4f8c <wpa_supplicant_parse_ies+0x200>
    4f50:	e3500013 	cmp	r0, #19
    4f54:	9a00000c 	bls	4f8c <wpa_supplicant_parse_ies+0x200>
    4f58:	e5d63003 	ldrb	r3, [r6, #3]
    4f5c:	e5d60002 	ldrb	r0, [r6, #2]
    4f60:	e1a03803 	lsl	r3, r3, #16
    4f64:	e1833c00 	orr	r3, r3, r0, lsl #24
    4f68:	e5d60005 	ldrb	r0, [r6, #5]
    4f6c:	e1833000 	orr	r3, r3, r0
    4f70:	e5d60004 	ldrb	r0, [r6, #4]
    4f74:	e1833400 	orr	r3, r3, r0, lsl #8
    4f78:	e153000c 	cmp	r3, ip
    4f7c:	02863006 	addeq	r3, r6, #6
    4f80:	05843010 	streq	r3, [r4, #16]
    4f84:	1a000002 	bne	4f94 <wpa_supplicant_parse_ies+0x208>
    4f88:	ea000017 	b	4fec <wpa_supplicant_parse_ies+0x260>
    4f8c:	e3500006 	cmp	r0, #6
    4f90:	9a000015 	bls	4fec <wpa_supplicant_parse_ies+0x260>
    4f94:	e5d63003 	ldrb	r3, [r6, #3]
    4f98:	e5d60002 	ldrb	r0, [r6, #2]
    4f9c:	e1a03803 	lsl	r3, r3, #16
    4fa0:	e1833c00 	orr	r3, r3, r0, lsl #24
    4fa4:	e5d60005 	ldrb	r0, [r6, #5]
    4fa8:	e1833000 	orr	r3, r3, r0
    4fac:	e5d60004 	ldrb	r0, [r6, #4]
    4fb0:	e1833400 	orr	r3, r3, r0, lsl #8
    4fb4:	e1530008 	cmp	r3, r8
    4fb8:	1a000005 	bne	4fd4 <wpa_supplicant_parse_ies+0x248>
    4fbc:	e2863006 	add	r3, r6, #6
    4fc0:	e5843014 	str	r3, [r4, #20]
    4fc4:	e5d63001 	ldrb	r3, [r6, #1]
    4fc8:	e2433004 	sub	r3, r3, #4
    4fcc:	e5843018 	str	r3, [r4, #24]
    4fd0:	ea000005 	b	4fec <wpa_supplicant_parse_ies+0x260>
    4fd4:	e1530007 	cmp	r3, r7
    4fd8:	02863006 	addeq	r3, r6, #6
    4fdc:	0584301c 	streq	r3, [r4, #28]
    4fe0:	05d63001 	ldrbeq	r3, [r6, #1]
    4fe4:	02433004 	subeq	r3, r3, #4
    4fe8:	05843020 	streq	r3, [r4, #32]
    4fec:	e5d63001 	ldrb	r3, [r6, #1]
    4ff0:	e2833002 	add	r3, r3, #2
    4ff4:	e0866003 	add	r6, r6, r3
    4ff8:	e2863001 	add	r3, r6, #1
    4ffc:	e1520003 	cmp	r2, r3
    5000:	8affff71 	bhi	4dcc <wpa_supplicant_parse_ies+0x40>
    5004:	e3a00000 	mov	r0, #0
    5008:	e8bd85f8 	pop	{r3, r4, r5, r6, r7, r8, sl, pc}
    500c:	e3e00000 	mvn	r0, #0
    5010:	e8bd85f8 	pop	{r3, r4, r5, r6, r7, r8, sl, pc}
    5014:	000fac01 	andeq	sl, pc, r1, lsl #24
    5018:	000fac03 	andeq	sl, pc, r3, lsl #24
    501c:	000fac04 	andeq	sl, pc, r4, lsl #24
    5020:	0050f201 	subseq	pc, r0, r1, lsl #4

00005024 <_wpa_snprintf_hex>:
    5024:	e3510000 	cmp	r1, #0
    5028:	e92d4ff7 	push	{r0, r1, r2, r4, r5, r6, r7, r8, r9, sl, fp, lr}
    502c:	e1a06000 	mov	r6, r0
    5030:	e0808001 	add	r8, r0, r1
    5034:	e1a04001 	mov	r4, r1
    5038:	e1a09002 	mov	r9, r2
    503c:	e1a0a003 	mov	sl, r3
    5040:	01a00001 	moveq	r0, r1
    5044:	0a00001b 	beq	50b8 <_wpa_snprintf_hex+0x94>
    5048:	e1a05006 	mov	r5, r6
    504c:	e3a07000 	mov	r7, #0
    5050:	e59fb064 	ldr	fp, [pc, #100]	; 50bc <_wpa_snprintf_hex+0x98>
    5054:	e59fc064 	ldr	ip, [pc, #100]	; 50c0 <_wpa_snprintf_hex+0x9c>
    5058:	ea000011 	b	50a4 <_wpa_snprintf_hex+0x80>
    505c:	e59d3030 	ldr	r3, [sp, #48]	; 0x30
    5060:	e3530000 	cmp	r3, #0
    5064:	11a0200c 	movne	r2, ip
    5068:	01a0200b 	moveq	r2, fp
    506c:	e1a00005 	mov	r0, r5
    5070:	e1a01004 	mov	r1, r4
    5074:	e7d93007 	ldrb	r3, [r9, r7]
    5078:	e58dc004 	str	ip, [sp, #4]
    507c:	eb006590 	bl	1e6c4 <snprintf>
    5080:	e3500000 	cmp	r0, #0
    5084:	e59dc004 	ldr	ip, [sp, #4]
    5088:	ba000007 	blt	50ac <_wpa_snprintf_hex+0x88>
    508c:	e0653008 	rsb	r3, r5, r8
    5090:	e1500003 	cmp	r0, r3
    5094:	aa000004 	bge	50ac <_wpa_snprintf_hex+0x88>
    5098:	e0855000 	add	r5, r5, r0
    509c:	e0604004 	rsb	r4, r0, r4
    50a0:	e2877001 	add	r7, r7, #1
    50a4:	e157000a 	cmp	r7, sl
    50a8:	1affffeb 	bne	505c <_wpa_snprintf_hex+0x38>
    50ac:	e3a03000 	mov	r3, #0
    50b0:	e5483001 	strb	r3, [r8, #-1]
    50b4:	e0660005 	rsb	r0, r6, r5
    50b8:	e8bd8ffe 	pop	{r1, r2, r3, r4, r5, r6, r7, r8, r9, sl, fp, pc}
    50bc:	0002a12c 	andeq	sl, r2, ip, lsr #2
    50c0:	0002a168 	andeq	sl, r2, r8, ror #2

000050c4 <hex2num>:
    50c4:	e2403030 	sub	r3, r0, #48	; 0x30
    50c8:	e20320ff 	and	r2, r3, #255	; 0xff
    50cc:	e3520009 	cmp	r2, #9
    50d0:	91a00003 	movls	r0, r3
    50d4:	91a0f00e 	movls	pc, lr
    50d8:	e2403061 	sub	r3, r0, #97	; 0x61
    50dc:	e3530005 	cmp	r3, #5
    50e0:	92400057 	subls	r0, r0, #87	; 0x57
    50e4:	91a0f00e 	movls	pc, lr
    50e8:	e2403041 	sub	r3, r0, #65	; 0x41
    50ec:	e3530005 	cmp	r3, #5
    50f0:	92400037 	subls	r0, r0, #55	; 0x37
    50f4:	83e00000 	mvnhi	r0, #0
    50f8:	e1a0f00e 	mov	pc, lr

000050fc <hex2byte>:
    50fc:	e92d4038 	push	{r3, r4, r5, lr}
    5100:	e1a04000 	mov	r4, r0
    5104:	e5d00000 	ldrb	r0, [r0]
    5108:	ebffffed 	bl	50c4 <hex2num>
    510c:	e2505000 	subs	r5, r0, #0
    5110:	b3e00000 	mvnlt	r0, #0
    5114:	b8bd8038 	poplt	{r3, r4, r5, pc}
    5118:	e5d40001 	ldrb	r0, [r4, #1]
    511c:	ebffffe8 	bl	50c4 <hex2num>
    5120:	e3500000 	cmp	r0, #0
    5124:	a1800205 	orrge	r0, r0, r5, lsl #4
    5128:	b3e00000 	mvnlt	r0, #0
    512c:	e8bd8038 	pop	{r3, r4, r5, pc}

00005130 <hwaddr_aton>:
    5130:	e92d40f8 	push	{r3, r4, r5, r6, r7, lr}
    5134:	e1a04000 	mov	r4, r0
    5138:	e1a06001 	mov	r6, r1
    513c:	e3a05000 	mov	r5, #0
    5140:	e5d40000 	ldrb	r0, [r4]
    5144:	ebffffde 	bl	50c4 <hex2num>
    5148:	e2507000 	subs	r7, r0, #0
    514c:	ba000011 	blt	5198 <hwaddr_aton+0x68>
    5150:	e5d40001 	ldrb	r0, [r4, #1]
    5154:	ebffffda 	bl	50c4 <hex2num>
    5158:	e3500000 	cmp	r0, #0
    515c:	ba00000d 	blt	5198 <hwaddr_aton+0x68>
    5160:	e1807207 	orr	r7, r0, r7, lsl #4
    5164:	e3550005 	cmp	r5, #5
    5168:	e7c67005 	strb	r7, [r6, r5]
    516c:	02844002 	addeq	r4, r4, #2
    5170:	0a000003 	beq	5184 <hwaddr_aton+0x54>
    5174:	e5d43002 	ldrb	r3, [r4, #2]
    5178:	e353003a 	cmp	r3, #58	; 0x3a
    517c:	1a000007 	bne	51a0 <hwaddr_aton+0x70>
    5180:	e2844003 	add	r4, r4, #3
    5184:	e2855001 	add	r5, r5, #1
    5188:	e3550006 	cmp	r5, #6
    518c:	1affffeb 	bne	5140 <hwaddr_aton+0x10>
    5190:	e3a00000 	mov	r0, #0
    5194:	e8bd80f8 	pop	{r3, r4, r5, r6, r7, pc}
    5198:	e3e00000 	mvn	r0, #0
    519c:	e8bd80f8 	pop	{r3, r4, r5, r6, r7, pc}
    51a0:	e3e00000 	mvn	r0, #0
    51a4:	e8bd80f8 	pop	{r3, r4, r5, r6, r7, pc}

000051a8 <hwaddr_compact_aton>:
    51a8:	e92d40f8 	push	{r3, r4, r5, r6, r7, lr}
    51ac:	e1a04000 	mov	r4, r0
    51b0:	e1a06001 	mov	r6, r1
    51b4:	e3a05000 	mov	r5, #0
    51b8:	e7d40005 	ldrb	r0, [r4, r5]
    51bc:	ebffffc0 	bl	50c4 <hex2num>
    51c0:	e2507000 	subs	r7, r0, #0
    51c4:	ba00000b 	blt	51f8 <hwaddr_compact_aton+0x50>
    51c8:	e0843005 	add	r3, r4, r5
    51cc:	e5d30001 	ldrb	r0, [r3, #1]
    51d0:	ebffffbb 	bl	50c4 <hex2num>
    51d4:	e3500000 	cmp	r0, #0
    51d8:	ba000008 	blt	5200 <hwaddr_compact_aton+0x58>
    51dc:	e2855002 	add	r5, r5, #2
    51e0:	e1807207 	orr	r7, r0, r7, lsl #4
    51e4:	e355000c 	cmp	r5, #12
    51e8:	e4c67001 	strb	r7, [r6], #1
    51ec:	1afffff1 	bne	51b8 <hwaddr_compact_aton+0x10>
    51f0:	e3a00000 	mov	r0, #0
    51f4:	e8bd80f8 	pop	{r3, r4, r5, r6, r7, pc}
    51f8:	e3e00000 	mvn	r0, #0
    51fc:	e8bd80f8 	pop	{r3, r4, r5, r6, r7, pc}
    5200:	e3e00000 	mvn	r0, #0
    5204:	e8bd80f8 	pop	{r3, r4, r5, r6, r7, pc}

00005208 <hwaddr_aton2>:
    5208:	e92d41f0 	push	{r4, r5, r6, r7, r8, lr}
    520c:	e1a04000 	mov	r4, r0
    5210:	e1a07001 	mov	r7, r1
    5214:	e1a06000 	mov	r6, r0
    5218:	e3a05000 	mov	r5, #0
    521c:	ea000013 	b	5270 <hwaddr_aton2+0x68>
    5220:	e1a06003 	mov	r6, r3
    5224:	e4d30001 	ldrb	r0, [r3], #1
    5228:	e350003a 	cmp	r0, #58	; 0x3a
    522c:	1350002e 	cmpne	r0, #46	; 0x2e
    5230:	0afffffa 	beq	5220 <hwaddr_aton2+0x18>
    5234:	e350002d 	cmp	r0, #45	; 0x2d
    5238:	0afffff8 	beq	5220 <hwaddr_aton2+0x18>
    523c:	ebffffa0 	bl	50c4 <hex2num>
    5240:	e2508000 	subs	r8, r0, #0
    5244:	ba00000d 	blt	5280 <hwaddr_aton2+0x78>
    5248:	e5d60001 	ldrb	r0, [r6, #1]
    524c:	ebffff9c 	bl	50c4 <hex2num>
    5250:	e3500000 	cmp	r0, #0
    5254:	ba00000b 	blt	5288 <hwaddr_aton2+0x80>
    5258:	e1808208 	orr	r8, r0, r8, lsl #4
    525c:	e7c78005 	strb	r8, [r7, r5]
    5260:	e2855001 	add	r5, r5, #1
    5264:	e3550006 	cmp	r5, #6
    5268:	e2866002 	add	r6, r6, #2
    526c:	0a000001 	beq	5278 <hwaddr_aton2+0x70>
    5270:	e1a03006 	mov	r3, r6
    5274:	eaffffe9 	b	5220 <hwaddr_aton2+0x18>
    5278:	e0640006 	rsb	r0, r4, r6
    527c:	e8bd81f0 	pop	{r4, r5, r6, r7, r8, pc}
    5280:	e3e00000 	mvn	r0, #0
    5284:	e8bd81f0 	pop	{r4, r5, r6, r7, r8, pc}
    5288:	e3e00000 	mvn	r0, #0
    528c:	e8bd81f0 	pop	{r4, r5, r6, r7, r8, pc}

00005290 <hexstr2bin>:
    5290:	e92d40f8 	push	{r3, r4, r5, r6, r7, lr}
    5294:	e1a04001 	mov	r4, r1
    5298:	e1a07002 	mov	r7, r2
    529c:	e1a06000 	mov	r6, r0
    52a0:	e3a05000 	mov	r5, #0
    52a4:	ea000006 	b	52c4 <hexstr2bin+0x34>
    52a8:	e1a00006 	mov	r0, r6
    52ac:	ebffff92 	bl	50fc <hex2byte>
    52b0:	e3500000 	cmp	r0, #0
    52b4:	ba000006 	blt	52d4 <hexstr2bin+0x44>
    52b8:	e7c40005 	strb	r0, [r4, r5]
    52bc:	e2866002 	add	r6, r6, #2
    52c0:	e2855001 	add	r5, r5, #1
    52c4:	e1550007 	cmp	r5, r7
    52c8:	1afffff6 	bne	52a8 <hexstr2bin+0x18>
    52cc:	e3a00000 	mov	r0, #0
    52d0:	e8bd80f8 	pop	{r3, r4, r5, r6, r7, pc}
    52d4:	e3e00000 	mvn	r0, #0
    52d8:	e8bd80f8 	pop	{r3, r4, r5, r6, r7, pc}

000052dc <inc_byte_array>:
    52dc:	ea000005 	b	52f8 <inc_byte_array+0x1c>
    52e0:	e7d03001 	ldrb	r3, [r0, r1]
    52e4:	e2833001 	add	r3, r3, #1
    52e8:	e20330ff 	and	r3, r3, #255	; 0xff
    52ec:	e3530000 	cmp	r3, #0
    52f0:	e7c03001 	strb	r3, [r0, r1]
    52f4:	11a0f00e 	movne	pc, lr
    52f8:	e2411001 	sub	r1, r1, #1
    52fc:	e3510000 	cmp	r1, #0
    5300:	aafffff6 	bge	52e0 <inc_byte_array+0x4>
    5304:	e1a0f00e 	mov	pc, lr

00005308 <wpa_snprintf_hex>:
    5308:	e92d4007 	push	{r0, r1, r2, lr}
    530c:	e3a0c000 	mov	ip, #0
    5310:	e58dc000 	str	ip, [sp]
    5314:	ebffff42 	bl	5024 <_wpa_snprintf_hex>
    5318:	e8bd800e 	pop	{r1, r2, r3, pc}

0000531c <wpa_snprintf_hex_uppercase>:
    531c:	e92d4007 	push	{r0, r1, r2, lr}
    5320:	e3a0c001 	mov	ip, #1
    5324:	e58dc000 	str	ip, [sp]
    5328:	ebffff3d 	bl	5024 <_wpa_snprintf_hex>
    532c:	e8bd800e 	pop	{r1, r2, r3, pc}

00005330 <wpa_ssid_txt>:
    5330:	e92d4038 	push	{r3, r4, r5, lr}
    5334:	e59f404c 	ldr	r4, [pc, #76]	; 5388 <wpa_ssid_txt+0x58>
    5338:	e1a03000 	mov	r3, r0
    533c:	e3510020 	cmp	r1, #32
    5340:	31a05001 	movcc	r5, r1
    5344:	23a05020 	movcs	r5, #32
    5348:	e1a02005 	mov	r2, r5
    534c:	e1a01003 	mov	r1, r3
    5350:	e1a00004 	mov	r0, r4
    5354:	eb00638f 	bl	1e198 <memcpy>
    5358:	e3a03000 	mov	r3, #0
    535c:	e7c43005 	strb	r3, [r4, r5]
    5360:	e3a0205f 	mov	r2, #95	; 0x5f
    5364:	ea000002 	b	5374 <wpa_ssid_txt+0x44>
    5368:	e2433020 	sub	r3, r3, #32
    536c:	e353005e 	cmp	r3, #94	; 0x5e
    5370:	85442001 	strbhi	r2, [r4, #-1]
    5374:	e4d43001 	ldrb	r3, [r4], #1
    5378:	e3530000 	cmp	r3, #0
    537c:	1afffff9 	bne	5368 <wpa_ssid_txt+0x38>
    5380:	e59f0000 	ldr	r0, [pc, #0]	; 5388 <wpa_ssid_txt+0x58>
    5384:	e8bd8038 	pop	{r3, r4, r5, pc}
    5388:	0002ac14 	andeq	sl, r2, r4, lsl ip

0000538c <__hide_aliasing_typecast>:
    538c:	e1a0f00e 	mov	pc, lr

00005390 <eloop_run>:
    5390:	e92d4008 	push	{r3, lr}
    5394:	eb0074e5 	bl	22730 <OS_TimerGetData>
    5398:	e59f3028 	ldr	r3, [pc, #40]	; 53c8 <eloop_run+0x38>
    539c:	e5d02000 	ldrb	r2, [r0]
    53a0:	e5d33000 	ldrb	r3, [r3]
    53a4:	e1530002 	cmp	r3, r2
    53a8:	98bd8008 	popls	{r3, pc}
    53ac:	e59f3018 	ldr	r3, [pc, #24]	; 53cc <eloop_run+0x3c>
    53b0:	e3a01014 	mov	r1, #20
    53b4:	e0233291 	mla	r3, r1, r2, r3
    53b8:	e9930003 	ldmib	r3, {r0, r1}
    53bc:	e1a0e00f 	mov	lr, pc
    53c0:	e593f00c 	ldr	pc, [r3, #12]
    53c4:	e8bd8008 	pop	{r3, pc}
    53c8:	0002ac35 	andeq	sl, r2, r5, lsr ip
    53cc:	0002b52c 	andeq	fp, r2, ip, lsr #10

000053d0 <eloop_init>:
    53d0:	e92d4008 	push	{r3, lr}
    53d4:	e3a01000 	mov	r1, #0
    53d8:	e3a02028 	mov	r2, #40	; 0x28
    53dc:	e59f0008 	ldr	r0, [pc, #8]	; 53ec <eloop_init+0x1c>
    53e0:	eb006333 	bl	1e0b4 <memset>
    53e4:	e3a00000 	mov	r0, #0
    53e8:	e8bd8008 	pop	{r3, pc}
    53ec:	0002b52c 	andeq	fp, r2, ip, lsr #10

000053f0 <eloop_register_timeout>:
    53f0:	e92d40f0 	push	{r4, r5, r6, r7, lr}
    53f4:	e3a01000 	mov	r1, #0
    53f8:	e24dd014 	sub	sp, sp, #20
    53fc:	e5cd100f 	strb	r1, [sp, #15]
    5400:	e59f110c 	ldr	r1, [pc, #268]	; 5514 <eloop_register_timeout+0x124>
    5404:	e5d11000 	ldrb	r1, [r1]
    5408:	e3510002 	cmp	r1, #2
    540c:	e1a06000 	mov	r6, r0
    5410:	0a00003c 	beq	5508 <eloop_register_timeout+0x118>
    5414:	e59f00fc 	ldr	r0, [pc, #252]	; 5518 <eloop_register_timeout+0x128>
    5418:	e5d01010 	ldrb	r1, [r0, #16]
    541c:	e3510000 	cmp	r1, #0
    5420:	0a000003 	beq	5434 <eloop_register_timeout+0x44>
    5424:	e5d01024 	ldrb	r1, [r0, #36]	; 0x24
    5428:	e3510000 	cmp	r1, #0
    542c:	1a000001 	bne	5438 <eloop_register_timeout+0x48>
    5430:	e3a01001 	mov	r1, #1
    5434:	e5cd100f 	strb	r1, [sp, #15]
    5438:	e5dd100f 	ldrb	r1, [sp, #15]
    543c:	e3a04014 	mov	r4, #20
    5440:	e00e0194 	mul	lr, r4, r1
    5444:	e080c00e 	add	ip, r0, lr
    5448:	e790700e 	ldr	r7, [r0, lr]
    544c:	e58c3004 	str	r3, [ip, #4]
    5450:	e59d3028 	ldr	r3, [sp, #40]	; 0x28
    5454:	e3570000 	cmp	r7, #0
    5458:	e59f50b8 	ldr	r5, [pc, #184]	; 5518 <eloop_register_timeout+0x128>
    545c:	e58c3008 	str	r3, [ip, #8]
    5460:	e58c200c 	str	r2, [ip, #12]
    5464:	1a000013 	bne	54b8 <eloop_register_timeout+0xc8>
    5468:	e59f00ac 	ldr	r0, [pc, #172]	; 551c <eloop_register_timeout+0x12c>
    546c:	eb00636d 	bl	1e228 <printf>
    5470:	e28d3010 	add	r3, sp, #16
    5474:	e5730001 	ldrb	r0, [r3, #-1]!
    5478:	e59f20a0 	ldr	r2, [pc, #160]	; 5520 <eloop_register_timeout+0x130>
    547c:	e3a01ffa 	mov	r1, #1000	; 0x3e8
    5480:	e58d2000 	str	r2, [sp]
    5484:	e0205094 	mla	r0, r4, r0, r5
    5488:	e0010196 	mul	r1, r6, r1
    548c:	e1a02007 	mov	r2, r7
    5490:	eb007472 	bl	22660 <OS_TimerCreate>
    5494:	e3500001 	cmp	r0, #1
    5498:	0a00001a 	beq	5508 <eloop_register_timeout+0x118>
    549c:	e5dd100f 	ldrb	r1, [sp, #15]
    54a0:	e0235194 	mla	r3, r4, r1, r5
    54a4:	e3a02001 	mov	r2, #1
    54a8:	e5c32010 	strb	r2, [r3, #16]
    54ac:	e59f0070 	ldr	r0, [pc, #112]	; 5524 <eloop_register_timeout+0x134>
    54b0:	eb00635c 	bl	1e228 <printf>
    54b4:	ea000009 	b	54e0 <eloop_register_timeout+0xf0>
    54b8:	e59f0068 	ldr	r0, [pc, #104]	; 5528 <eloop_register_timeout+0x138>
    54bc:	eb006359 	bl	1e228 <printf>
    54c0:	e5dd300f 	ldrb	r3, [sp, #15]
    54c4:	e0030394 	mul	r3, r4, r3
    54c8:	e3a01ffa 	mov	r1, #1000	; 0x3e8
    54cc:	e3a02000 	mov	r2, #0
    54d0:	e7950003 	ldr	r0, [r5, r3]
    54d4:	e0010196 	mul	r1, r6, r1
    54d8:	e1a03002 	mov	r3, r2
    54dc:	eb007473 	bl	226b0 <OS_TimerSet>
    54e0:	e5dd300f 	ldrb	r3, [sp, #15]
    54e4:	e0040493 	mul	r4, r3, r4
    54e8:	e7950004 	ldr	r0, [r5, r4]
    54ec:	eb00747e 	bl	226ec <OS_TimerStart>
    54f0:	e59f301c 	ldr	r3, [pc, #28]	; 5514 <eloop_register_timeout+0x124>
    54f4:	e5d32000 	ldrb	r2, [r3]
    54f8:	e2822001 	add	r2, r2, #1
    54fc:	e5c32000 	strb	r2, [r3]
    5500:	e3a00000 	mov	r0, #0
    5504:	ea000000 	b	550c <eloop_register_timeout+0x11c>
    5508:	e3e00000 	mvn	r0, #0
    550c:	e28dd014 	add	sp, sp, #20
    5510:	e8bd80f0 	pop	{r4, r5, r6, r7, pc}
    5514:	0002ac35 	andeq	sl, r2, r5, lsr ip
    5518:	0002b52c 	andeq	fp, r2, ip, lsr #10
    551c:	00025a61 	andeq	r5, r2, r1, ror #20
    5520:	00005390 	muleq	r0, r0, r3
    5524:	00025a87 	andeq	r5, r2, r7, lsl #21
    5528:	00025aac 	andeq	r5, r2, ip, lsr #21

0000552c <eloop_cancel_timeout>:
    552c:	e92d4070 	push	{r4, r5, r6, lr}
    5530:	e59f30a8 	ldr	r3, [pc, #168]	; 55e0 <eloop_cancel_timeout+0xb4>
    5534:	e5d35000 	ldrb	r5, [r3]
    5538:	e3550000 	cmp	r5, #0
    553c:	0a000025 	beq	55d8 <eloop_cancel_timeout+0xac>
    5540:	e59fc09c 	ldr	ip, [pc, #156]	; 55e4 <eloop_cancel_timeout+0xb8>
    5544:	e3a03000 	mov	r3, #0
    5548:	e5dc4000 	ldrb	r4, [ip]
    554c:	e3540001 	cmp	r4, #1
    5550:	1a000019 	bne	55bc <eloop_cancel_timeout+0x90>
    5554:	e51c6004 	ldr	r6, [ip, #-4]
    5558:	e1560000 	cmp	r6, r0
    555c:	1a000016 	bne	55bc <eloop_cancel_timeout+0x90>
    5560:	e51c600c 	ldr	r6, [ip, #-12]
    5564:	e3710001 	cmn	r1, #1
    5568:	11560001 	cmpne	r6, r1
    556c:	1a000012 	bne	55bc <eloop_cancel_timeout+0x90>
    5570:	e51c6008 	ldr	r6, [ip, #-8]
    5574:	e3720001 	cmn	r2, #1
    5578:	11560002 	cmpne	r6, r2
    557c:	1a00000e 	bne	55bc <eloop_cancel_timeout+0x90>
    5580:	e59f2058 	ldr	r2, [pc, #88]	; 55e0 <eloop_cancel_timeout+0xb4>
    5584:	e2455001 	sub	r5, r5, #1
    5588:	e5c25000 	strb	r5, [r2]
    558c:	e3a05014 	mov	r5, #20
    5590:	e0050593 	mul	r5, r3, r5
    5594:	e59f604c 	ldr	r6, [pc, #76]	; 55e8 <eloop_cancel_timeout+0xbc>
    5598:	e3a01000 	mov	r1, #0
    559c:	e0862005 	add	r2, r6, r5
    55a0:	e5c21010 	strb	r1, [r2, #16]
    55a4:	e59f0040 	ldr	r0, [pc, #64]	; 55ec <eloop_cancel_timeout+0xc0>
    55a8:	e1a01003 	mov	r1, r3
    55ac:	eb00631d 	bl	1e228 <printf>
    55b0:	e7960005 	ldr	r0, [r6, r5]
    55b4:	eb007456 	bl	22714 <OS_TimerStop>
    55b8:	ea000004 	b	55d0 <eloop_cancel_timeout+0xa4>
    55bc:	e2833001 	add	r3, r3, #1
    55c0:	e3530002 	cmp	r3, #2
    55c4:	e28cc014 	add	ip, ip, #20
    55c8:	1affffde 	bne	5548 <eloop_cancel_timeout+0x1c>
    55cc:	e3a04000 	mov	r4, #0
    55d0:	e1a00004 	mov	r0, r4
    55d4:	e8bd8070 	pop	{r4, r5, r6, pc}
    55d8:	e1a00005 	mov	r0, r5
    55dc:	e8bd8070 	pop	{r4, r5, r6, pc}
    55e0:	0002ac35 	andeq	sl, r2, r5, lsr ip
    55e4:	0002b53c 	andeq	fp, r2, ip, lsr r5
    55e8:	0002b52c 	andeq	fp, r2, ip, lsr #10
    55ec:	00025ad4 	ldrdeq	r5, [r2], -r4

000055f0 <os_malloc>:
    55f0:	e1a00800 	lsl	r0, r0, #16
    55f4:	e1a00820 	lsr	r0, r0, #16
    55f8:	e3a01000 	mov	r1, #0
    55fc:	e3a02002 	mov	r2, #2
    5600:	ea003c72 	b	147d0 <PBUF_MAlloc_Raw>

00005604 <os_free>:
    5604:	e3500000 	cmp	r0, #0
    5608:	01a0f00e 	moveq	pc, lr
    560c:	ea003c87 	b	14830 <_PBUF_MFree>

00005610 <os_get_random>:
    5610:	ea005ed2 	b	1d160 <drv_get_random>

00005614 <wpa_supplicant_stop_countermeasures>:
    5614:	e5902008 	ldr	r2, [r0, #8]
    5618:	e3520000 	cmp	r2, #0
    561c:	01a0f00e 	moveq	pc, lr
    5620:	e3a01000 	mov	r1, #0
    5624:	e5801008 	str	r1, [r0, #8]
    5628:	eafff598 	b	2c90 <wpa_drv_set_countermeasures>

0000562c <wpa_supplicant_mark_disassoc>:
    562c:	e92d4010 	push	{r4, lr}
    5630:	e3a01000 	mov	r1, #0
    5634:	e1a04000 	mov	r4, r0
    5638:	eb000129 	bl	5ae4 <wpa_supplicant_set_state>
    563c:	e2840010 	add	r0, r4, #16
    5640:	e3a01000 	mov	r1, #0
    5644:	e3a02006 	mov	r2, #6
    5648:	e8bd4010 	pop	{r4, lr}
    564c:	ea006298 	b	1e0b4 <memset>

00005650 <supplicant_event>:
    5650:	e92d47ff 	push	{r0, r1, r2, r3, r4, r5, r6, r7, r8, r9, sl, lr}
    5654:	e1a04000 	mov	r4, r0
    5658:	e1a05002 	mov	r5, r2
    565c:	e3510005 	cmp	r1, #5
    5660:	979ff101 	ldrls	pc, [pc, r1, lsl #2]
    5664:	ea0000c0 	b	596c <supplicant_event+0x31c>
    5668:	00005680 	andeq	r5, r0, r0, lsl #13
    566c:	000058b0 			; <UNDEFINED> instruction: 0x000058b0
    5670:	000058e4 	andeq	r5, r0, r4, ror #17
    5674:	0000596c 	andeq	r5, r0, ip, ror #18
    5678:	000058b0 			; <UNDEFINED> instruction: 0x000058b0
    567c:	00005950 	andeq	r5, r0, r0, asr r9
    5680:	e3520000 	cmp	r2, #0
    5684:	0a000065 	beq	5820 <supplicant_event+0x1d0>
    5688:	e9920140 	ldmib	r2, {r6, r8}
    568c:	ea00001d 	b	5708 <supplicant_event+0xb8>
    5690:	e5d63001 	ldrb	r3, [r6, #1]
    5694:	e2837002 	add	r7, r3, #2
    5698:	e1570008 	cmp	r7, r8
    569c:	ca00001c 	bgt	5714 <supplicant_event+0xc4>
    56a0:	e5d62000 	ldrb	r2, [r6]
    56a4:	e35200dd 	cmp	r2, #221	; 0xdd
    56a8:	1a000007 	bne	56cc <supplicant_event+0x7c>
    56ac:	e3530005 	cmp	r3, #5
    56b0:	9a000005 	bls	56cc <supplicant_event+0x7c>
    56b4:	e2860002 	add	r0, r6, #2
    56b8:	e59f12b0 	ldr	r1, [pc, #688]	; 5970 <supplicant_event+0x320>
    56bc:	e3a02006 	mov	r2, #6
    56c0:	eb0062bc 	bl	1e1b8 <memcmp>
    56c4:	e3500000 	cmp	r0, #0
    56c8:	0a000005 	beq	56e4 <supplicant_event+0x94>
    56cc:	e5d63000 	ldrb	r3, [r6]
    56d0:	e3530030 	cmp	r3, #48	; 0x30
    56d4:	1a000009 	bne	5700 <supplicant_event+0xb0>
    56d8:	e5d63001 	ldrb	r3, [r6, #1]
    56dc:	e3530001 	cmp	r3, #1
    56e0:	9a000006 	bls	5700 <supplicant_event+0xb0>
    56e4:	e5940030 	ldr	r0, [r4, #48]	; 0x30
    56e8:	e1a01006 	mov	r1, r6
    56ec:	e1a02007 	mov	r2, r7
    56f0:	ebfffc4c 	bl	4828 <wpa_sm_set_assoc_wpa_ie>
    56f4:	e3500000 	cmp	r0, #0
    56f8:	1a000005 	bne	5714 <supplicant_event+0xc4>
    56fc:	ea00000a 	b	572c <supplicant_event+0xdc>
    5700:	e0678008 	rsb	r8, r7, r8
    5704:	e0866007 	add	r6, r6, r7
    5708:	e3560000 	cmp	r6, #0
    570c:	13580001 	cmpne	r8, #1
    5710:	caffffde 	bgt	5690 <supplicant_event+0x40>
    5714:	e5953004 	ldr	r3, [r5, #4]
    5718:	e3530000 	cmp	r3, #0
    571c:	13a01000 	movne	r1, #0
    5720:	15940030 	ldrne	r0, [r4, #48]	; 0x30
    5724:	11a02001 	movne	r2, r1
    5728:	1bfffc3e 	blne	4828 <wpa_sm_set_assoc_wpa_ie>
    572c:	e2856014 	add	r6, r5, #20
    5730:	e3a07000 	mov	r7, #0
    5734:	e8960240 	ldm	r6, {r6, r9}
    5738:	e1a08007 	mov	r8, r7
    573c:	ea000024 	b	57d4 <supplicant_event+0x184>
    5740:	e5d63001 	ldrb	r3, [r6, #1]
    5744:	e283a002 	add	sl, r3, #2
    5748:	e15a0009 	cmp	sl, r9
    574c:	ca000023 	bgt	57e0 <supplicant_event+0x190>
    5750:	e3580000 	cmp	r8, #0
    5754:	1a00000e 	bne	5794 <supplicant_event+0x144>
    5758:	e5d62000 	ldrb	r2, [r6]
    575c:	e35200dd 	cmp	r2, #221	; 0xdd
    5760:	1a00000c 	bne	5798 <supplicant_event+0x148>
    5764:	e3530005 	cmp	r3, #5
    5768:	9a00000a 	bls	5798 <supplicant_event+0x148>
    576c:	e2860002 	add	r0, r6, #2
    5770:	e59f11f8 	ldr	r1, [pc, #504]	; 5970 <supplicant_event+0x320>
    5774:	e3a02006 	mov	r2, #6
    5778:	eb00628e 	bl	1e1b8 <memcmp>
    577c:	e3500000 	cmp	r0, #0
    5780:	1a000004 	bne	5798 <supplicant_event+0x148>
    5784:	e5940030 	ldr	r0, [r4, #48]	; 0x30
    5788:	e1a01006 	mov	r1, r6
    578c:	e1a0200a 	mov	r2, sl
    5790:	ebfffc41 	bl	489c <wpa_sm_set_ap_wpa_ie>
    5794:	e3a08001 	mov	r8, #1
    5798:	e3570000 	cmp	r7, #0
    579c:	1a000009 	bne	57c8 <supplicant_event+0x178>
    57a0:	e5d63000 	ldrb	r3, [r6]
    57a4:	e3530030 	cmp	r3, #48	; 0x30
    57a8:	1a000007 	bne	57cc <supplicant_event+0x17c>
    57ac:	e5d63001 	ldrb	r3, [r6, #1]
    57b0:	e3530001 	cmp	r3, #1
    57b4:	9a000004 	bls	57cc <supplicant_event+0x17c>
    57b8:	e5940030 	ldr	r0, [r4, #48]	; 0x30
    57bc:	e1a01006 	mov	r1, r6
    57c0:	e1a0200a 	mov	r2, sl
    57c4:	ebfffc51 	bl	4910 <wpa_sm_set_ap_rsn_ie>
    57c8:	e3a07001 	mov	r7, #1
    57cc:	e06a9009 	rsb	r9, sl, r9
    57d0:	e086600a 	add	r6, r6, sl
    57d4:	e3560000 	cmp	r6, #0
    57d8:	13590001 	cmpne	r9, #1
    57dc:	caffffd7 	bgt	5740 <supplicant_event+0xf0>
    57e0:	e3580000 	cmp	r8, #0
    57e4:	1a000005 	bne	5800 <supplicant_event+0x1b0>
    57e8:	e5953014 	ldr	r3, [r5, #20]
    57ec:	e3530000 	cmp	r3, #0
    57f0:	15940030 	ldrne	r0, [r4, #48]	; 0x30
    57f4:	11a01008 	movne	r1, r8
    57f8:	11a02008 	movne	r2, r8
    57fc:	1bfffc26 	blne	489c <wpa_sm_set_ap_wpa_ie>
    5800:	e3570000 	cmp	r7, #0
    5804:	1a000005 	bne	5820 <supplicant_event+0x1d0>
    5808:	e5953014 	ldr	r3, [r5, #20]
    580c:	e3530000 	cmp	r3, #0
    5810:	15940030 	ldrne	r0, [r4, #48]	; 0x30
    5814:	11a01007 	movne	r1, r7
    5818:	11a02007 	movne	r2, r7
    581c:	1bfffc3b 	blne	4910 <wpa_sm_set_ap_rsn_ie>
    5820:	e1a00004 	mov	r0, r4
    5824:	e3a01005 	mov	r1, #5
    5828:	eb0000ad 	bl	5ae4 <wpa_supplicant_set_state>
    582c:	e28d1008 	add	r1, sp, #8
    5830:	e1a00004 	mov	r0, r4
    5834:	ebfff517 	bl	2c98 <wpa_drv_get_bssid>
    5838:	e5940030 	ldr	r0, [r4, #48]	; 0x30
    583c:	e28d1008 	add	r1, sp, #8
    5840:	ebfffb92 	bl	4690 <wpa_sm_notify_assoc>
    5844:	e3a03000 	mov	r3, #0
    5848:	e5843038 	str	r3, [r4, #56]	; 0x38
    584c:	e5943024 	ldr	r3, [r4, #36]	; 0x24
    5850:	e3530004 	cmp	r3, #4
    5854:	13530010 	cmpne	r3, #16
    5858:	1a000004 	bne	5870 <supplicant_event+0x220>
    585c:	e1a00004 	mov	r0, r4
    5860:	eb000069 	bl	5a0c <wpa_supplicant_cancel_auth_timeout>
    5864:	e1a00004 	mov	r0, r4
    5868:	e3a01008 	mov	r1, #8
    586c:	eb00009c 	bl	5ae4 <wpa_supplicant_set_state>
    5870:	e5d43034 	ldrb	r3, [r4, #52]	; 0x34
    5874:	e3530006 	cmp	r3, #6
    5878:	1a000009 	bne	58a4 <supplicant_event+0x254>
    587c:	e5940024 	ldr	r0, [r4, #36]	; 0x24
    5880:	ebffebd1 	bl	7cc <wpa_key_mgmt_wpa_psk>
    5884:	e3500000 	cmp	r0, #0
    5888:	0a000005 	beq	58a4 <supplicant_event+0x254>
    588c:	e1a00004 	mov	r0, r4
    5890:	eb00005d 	bl	5a0c <wpa_supplicant_cancel_auth_timeout>
    5894:	e1a00004 	mov	r0, r4
    5898:	e3a01008 	mov	r1, #8
    589c:	eb000090 	bl	5ae4 <wpa_supplicant_set_state>
    58a0:	ea000031 	b	596c <supplicant_event+0x31c>
    58a4:	e5940024 	ldr	r0, [r4, #36]	; 0x24
    58a8:	ebffebc3 	bl	7bc <wpa_key_mgmt_wpa_ieee8021x>
    58ac:	ea00002e 	b	596c <supplicant_event+0x31c>
    58b0:	e5900024 	ldr	r0, [r0, #36]	; 0x24
    58b4:	e3500010 	cmp	r0, #16
    58b8:	0a00002b 	beq	596c <supplicant_event+0x31c>
    58bc:	e5d43034 	ldrb	r3, [r4, #52]	; 0x34
    58c0:	e3530006 	cmp	r3, #6
    58c4:	0bffebc0 	bleq	7cc <wpa_key_mgmt_wpa_psk>
    58c8:	e5943024 	ldr	r3, [r4, #36]	; 0x24
    58cc:	e3530004 	cmp	r3, #4
    58d0:	13530010 	cmpne	r3, #16
    58d4:	1a000020 	bne	595c <supplicant_event+0x30c>
    58d8:	e1a00004 	mov	r0, r4
    58dc:	ebffff52 	bl	562c <wpa_supplicant_mark_disassoc>
    58e0:	ea000021 	b	596c <supplicant_event+0x31c>
    58e4:	e3520000 	cmp	r2, #0
    58e8:	01a02002 	moveq	r2, r2
    58ec:	0a000002 	beq	58fc <supplicant_event+0x2ac>
    58f0:	e5952000 	ldr	r2, [r5]
    58f4:	e2922000 	adds	r2, r2, #0
    58f8:	13a02001 	movne	r2, #1
    58fc:	e5940030 	ldr	r0, [r4, #48]	; 0x30
    5900:	e3a01001 	mov	r1, #1
    5904:	ebfff73a 	bl	35f4 <wpa_sm_key_request>
    5908:	e3a01001 	mov	r1, #1
    590c:	e5841008 	str	r1, [r4, #8]
    5910:	e1a00004 	mov	r0, r4
    5914:	ebfff4dd 	bl	2c90 <wpa_drv_set_countermeasures>
    5918:	e1a00004 	mov	r0, r4
    591c:	e3a0100e 	mov	r1, #14
    5920:	eb000127 	bl	5dc4 <wpa_supplicant_deauthenticate>
    5924:	e1a01004 	mov	r1, r4
    5928:	e3a02000 	mov	r2, #0
    592c:	e59f0040 	ldr	r0, [pc, #64]	; 5974 <supplicant_event+0x324>
    5930:	ebfffefd 	bl	552c <eloop_cancel_timeout>
    5934:	e3a01000 	mov	r1, #0
    5938:	e59f2034 	ldr	r2, [pc, #52]	; 5974 <supplicant_event+0x324>
    593c:	e1a03004 	mov	r3, r4
    5940:	e3a0003c 	mov	r0, #60	; 0x3c
    5944:	e58d1000 	str	r1, [sp]
    5948:	ebfffea8 	bl	53f0 <eloop_register_timeout>
    594c:	ea000006 	b	596c <supplicant_event+0x31c>
    5950:	e892000e 	ldm	r2, {r1, r2, r3}
    5954:	eb00014b 	bl	5e88 <wpa_supplicant_rx_eapol>
    5958:	ea000003 	b	596c <supplicant_event+0x31c>
    595c:	e1a00004 	mov	r0, r4
    5960:	e2841010 	add	r1, r4, #16
    5964:	eb00002d 	bl	5a20 <wpa_clear_keys>
    5968:	eaffffda 	b	58d8 <supplicant_event+0x288>
    596c:	e8bd87ff 	pop	{r0, r1, r2, r3, r4, r5, r6, r7, r8, r9, sl, pc}
    5970:	00024539 	andeq	r4, r2, r9, lsr r5
    5974:	00005614 	andeq	r5, r0, r4, lsl r6

00005978 <_calc_pmk_in_background>:
    5978:	e92d4070 	push	{r4, r5, r6, lr}
    597c:	e3a01020 	mov	r1, #32
    5980:	e1a06000 	mov	r6, r0
    5984:	ebfff476 	bl	2b64 <pbkdf2_sha1_calc_func>
    5988:	e2504000 	subs	r4, r0, #0
    598c:	1a00000a 	bne	59bc <_calc_pmk_in_background+0x44>
    5990:	e596502c 	ldr	r5, [r6, #44]	; 0x2c
    5994:	e1a01006 	mov	r1, r6
    5998:	e5950030 	ldr	r0, [r5, #48]	; 0x30
    599c:	e3a02020 	mov	r2, #32
    59a0:	ebfffb4c 	bl	46d8 <wpa_sm_set_pmk>
    59a4:	e1a00006 	mov	r0, r6
    59a8:	ebfff4b5 	bl	2c84 <deinit_pbkdf2_sha1_calc>
    59ac:	e5854040 	str	r4, [r5, #64]	; 0x40
    59b0:	e585403c 	str	r4, [r5, #60]	; 0x3c
    59b4:	e1a00004 	mov	r0, r4
    59b8:	e8bd8070 	pop	{r4, r5, r6, pc}
    59bc:	e3a00001 	mov	r0, #1
    59c0:	e8bd8070 	pop	{r4, r5, r6, pc}

000059c4 <wpa_supplicant_req_auth_timeout>:
    59c4:	e92d40f7 	push	{r0, r1, r2, r4, r5, r6, r7, lr}
    59c8:	e59f5038 	ldr	r5, [pc, #56]	; 5a08 <wpa_supplicant_req_auth_timeout+0x44>
    59cc:	e1a04000 	mov	r4, r0
    59d0:	e1a07001 	mov	r7, r1
    59d4:	e1a06002 	mov	r6, r2
    59d8:	e1a01004 	mov	r1, r4
    59dc:	e1a00005 	mov	r0, r5
    59e0:	e3a02000 	mov	r2, #0
    59e4:	ebfffed0 	bl	552c <eloop_cancel_timeout>
    59e8:	e3a03000 	mov	r3, #0
    59ec:	e58d3000 	str	r3, [sp]
    59f0:	e1a00007 	mov	r0, r7
    59f4:	e1a01006 	mov	r1, r6
    59f8:	e1a02005 	mov	r2, r5
    59fc:	e1a03004 	mov	r3, r4
    5a00:	ebfffe7a 	bl	53f0 <eloop_register_timeout>
    5a04:	e8bd80fe 	pop	{r1, r2, r3, r4, r5, r6, r7, pc}
    5a08:	00005dbc 			; <UNDEFINED> instruction: 0x00005dbc

00005a0c <wpa_supplicant_cancel_auth_timeout>:
    5a0c:	e1a01000 	mov	r1, r0
    5a10:	e59f0004 	ldr	r0, [pc, #4]	; 5a1c <wpa_supplicant_cancel_auth_timeout+0x10>
    5a14:	e3a02000 	mov	r2, #0
    5a18:	eafffec3 	b	552c <eloop_cancel_timeout>
    5a1c:	00005dbc 			; <UNDEFINED> instruction: 0x00005dbc

00005a20 <wpa_clear_keys>:
    5a20:	e92d4070 	push	{r4, r5, r6, lr}
    5a24:	e3a04000 	mov	r4, #0
    5a28:	e24dd018 	sub	sp, sp, #24
    5a2c:	e1a06001 	mov	r6, r1
    5a30:	e1a02004 	mov	r2, r4
    5a34:	e1a01004 	mov	r1, r4
    5a38:	e1a03004 	mov	r3, r4
    5a3c:	e1a05000 	mov	r5, r0
    5a40:	e58d4000 	str	r4, [sp]
    5a44:	e58d4004 	str	r4, [sp, #4]
    5a48:	e58d4008 	str	r4, [sp, #8]
    5a4c:	e58d400c 	str	r4, [sp, #12]
    5a50:	e58d4010 	str	r4, [sp, #16]
    5a54:	ebfff552 	bl	2fa4 <wpa_drv_set_key>
    5a58:	e1560004 	cmp	r6, r4
    5a5c:	0a000009 	beq	5a88 <wpa_clear_keys+0x68>
    5a60:	e1a00005 	mov	r0, r5
    5a64:	e1a01004 	mov	r1, r4
    5a68:	e1a02006 	mov	r2, r6
    5a6c:	e1a03004 	mov	r3, r4
    5a70:	e58d4000 	str	r4, [sp]
    5a74:	e58d4004 	str	r4, [sp, #4]
    5a78:	e58d4008 	str	r4, [sp, #8]
    5a7c:	e58d400c 	str	r4, [sp, #12]
    5a80:	e58d4010 	str	r4, [sp, #16]
    5a84:	ebfff546 	bl	2fa4 <wpa_drv_set_key>
    5a88:	e3a03000 	mov	r3, #0
    5a8c:	e5853040 	str	r3, [r5, #64]	; 0x40
    5a90:	e585303c 	str	r3, [r5, #60]	; 0x3c
    5a94:	e28dd018 	add	sp, sp, #24
    5a98:	e8bd8070 	pop	{r4, r5, r6, pc}

00005a9c <wpa_supplicant_clear_connection>:
    5a9c:	e92d4010 	push	{r4, lr}
    5aa0:	e1a04000 	mov	r4, r0
    5aa4:	ebffffdd 	bl	5a20 <wpa_clear_keys>
    5aa8:	e1a00004 	mov	r0, r4
    5aac:	ebfffede 	bl	562c <wpa_supplicant_mark_disassoc>
    5ab0:	e59f000c 	ldr	r0, [pc, #12]	; 5ac4 <wpa_supplicant_clear_connection+0x28>
    5ab4:	e1a01004 	mov	r1, r4
    5ab8:	e3a02000 	mov	r2, #0
    5abc:	e8bd4010 	pop	{r4, lr}
    5ac0:	eafffe99 	b	552c <eloop_cancel_timeout>
    5ac4:	00005dbc 			; <UNDEFINED> instruction: 0x00005dbc

00005ac8 <wpa_supplicant_state_txt>:
    5ac8:	e3500008 	cmp	r0, #8
    5acc:	959f3008 	ldrls	r3, [pc, #8]	; 5adc <wpa_supplicant_state_txt+0x14>
    5ad0:	859f0008 	ldrhi	r0, [pc, #8]	; 5ae0 <wpa_supplicant_state_txt+0x18>
    5ad4:	97930100 	ldrls	r0, [r3, r0, lsl #2]
    5ad8:	e1a0f00e 	mov	pc, lr
    5adc:	00024540 	andeq	r4, r2, r0, asr #10
    5ae0:	00025761 	andeq	r5, r2, r1, ror #14

00005ae4 <wpa_supplicant_set_state>:
    5ae4:	e92d4038 	push	{r3, r4, r5, lr}
    5ae8:	e1a04000 	mov	r4, r0
    5aec:	e1a05001 	mov	r5, r1
    5af0:	ebfff679 	bl	34dc <wpa_drv_set_operstate>
    5af4:	e5c45034 	strb	r5, [r4, #52]	; 0x34
    5af8:	e8bd8038 	pop	{r3, r4, r5, pc}

00005afc <wpa_supplicant_clear_status>:
    5afc:	e92d4038 	push	{r3, r4, r5, lr}
    5b00:	e3a05000 	mov	r5, #0
    5b04:	e1a04000 	mov	r4, r0
    5b08:	e580501c 	str	r5, [r0, #28]
    5b0c:	e5805020 	str	r5, [r0, #32]
    5b10:	e580502c 	str	r5, [r0, #44]	; 0x2c
    5b14:	e5805024 	str	r5, [r0, #36]	; 0x24
    5b18:	e5c05034 	strb	r5, [r0, #52]	; 0x34
    5b1c:	ebfff5d6 	bl	327c <wpa_drv_get_mac_addr>
    5b20:	e5940030 	ldr	r0, [r4, #48]	; 0x30
    5b24:	e1a01004 	mov	r1, r4
    5b28:	ebfffaee 	bl	46e8 <wpa_sm_set_own_addr>
    5b2c:	e1a00004 	mov	r0, r4
    5b30:	e1a01005 	mov	r1, r5
    5b34:	e8bd4038 	pop	{r3, r4, r5, lr}
    5b38:	eaffffb8 	b	5a20 <wpa_clear_keys>

00005b3c <pbkdf2_sha1_iter>:
    5b3c:	e92d4038 	push	{r3, r4, r5, lr}
    5b40:	ebfff3d3 	bl	2a94 <init_pbkdf2_sha1_calc>
    5b44:	e1a04000 	mov	r4, r0
    5b48:	e1a00004 	mov	r0, r4
    5b4c:	e3a01020 	mov	r1, #32
    5b50:	ebfff403 	bl	2b64 <pbkdf2_sha1_calc_func>
    5b54:	e2505000 	subs	r5, r0, #0
    5b58:	1afffffa 	bne	5b48 <pbkdf2_sha1_iter+0xc>
    5b5c:	e1a01004 	mov	r1, r4
    5b60:	e59d2014 	ldr	r2, [sp, #20]
    5b64:	e59d0010 	ldr	r0, [sp, #16]
    5b68:	eb00618a 	bl	1e198 <memcpy>
    5b6c:	e1a00004 	mov	r0, r4
    5b70:	ebfff443 	bl	2c84 <deinit_pbkdf2_sha1_calc>
    5b74:	e1a00005 	mov	r0, r5
    5b78:	e8bd8038 	pop	{r3, r4, r5, pc}

00005b7c <wpa_supplicant_set_suites>:
    5b7c:	e92d41f0 	push	{r4, r5, r6, r7, r8, lr}
    5b80:	e1a04000 	mov	r4, r0
    5b84:	e5841018 	str	r1, [r4, #24]
    5b88:	e1a08003 	mov	r8, r3
    5b8c:	e5d1308a 	ldrb	r3, [r1, #138]	; 0x8a
    5b90:	e24dd020 	sub	sp, sp, #32
    5b94:	e1a05001 	mov	r5, r1
    5b98:	e3130002 	tst	r3, #2
    5b9c:	e3a01000 	mov	r1, #0
    5ba0:	e1a06002 	mov	r6, r2
    5ba4:	e1a0000d 	mov	r0, sp
    5ba8:	e3a02020 	mov	r2, #32
    5bac:	03a07001 	moveq	r7, #1
    5bb0:	13a07002 	movne	r7, #2
    5bb4:	eb00613e 	bl	1e0b4 <memset>
    5bb8:	e5d53088 	ldrb	r3, [r5, #136]	; 0x88
    5bbc:	e58d3008 	str	r3, [sp, #8]
    5bc0:	e5d53087 	ldrb	r3, [r5, #135]	; 0x87
    5bc4:	e58d3004 	str	r3, [sp, #4]
    5bc8:	e5d53089 	ldrb	r3, [r5, #137]	; 0x89
    5bcc:	e3a01000 	mov	r1, #0
    5bd0:	e1a02007 	mov	r2, r7
    5bd4:	e5847028 	str	r7, [r4, #40]	; 0x28
    5bd8:	e5940030 	ldr	r0, [r4, #48]	; 0x30
    5bdc:	e58d300c 	str	r3, [sp, #12]
    5be0:	ebfffac5 	bl	46fc <wpa_sm_set_param>
    5be4:	e5d5308a 	ldrb	r3, [r5, #138]	; 0x8a
    5be8:	e3130002 	tst	r3, #2
    5bec:	03a02000 	moveq	r2, #0
    5bf0:	13a02001 	movne	r2, #1
    5bf4:	e5940030 	ldr	r0, [r4, #48]	; 0x30
    5bf8:	e3a01004 	mov	r1, #4
    5bfc:	ebfffabe 	bl	46fc <wpa_sm_set_param>
    5c00:	e5d52088 	ldrb	r2, [r5, #136]	; 0x88
    5c04:	e59d3008 	ldr	r3, [sp, #8]
    5c08:	e0023003 	and	r3, r2, r3
    5c0c:	e3130010 	tst	r3, #16
    5c10:	13a03010 	movne	r3, #16
    5c14:	1a000008 	bne	5c3c <wpa_supplicant_set_suites+0xc0>
    5c18:	e3130008 	tst	r3, #8
    5c1c:	13a03008 	movne	r3, #8
    5c20:	1a000005 	bne	5c3c <wpa_supplicant_set_suites+0xc0>
    5c24:	e3130004 	tst	r3, #4
    5c28:	13a03004 	movne	r3, #4
    5c2c:	1a000002 	bne	5c3c <wpa_supplicant_set_suites+0xc0>
    5c30:	e3130002 	tst	r3, #2
    5c34:	0a000046 	beq	5d54 <wpa_supplicant_set_suites+0x1d8>
    5c38:	e3a03002 	mov	r3, #2
    5c3c:	e5843020 	str	r3, [r4, #32]
    5c40:	e59d3004 	ldr	r3, [sp, #4]
    5c44:	e5d52087 	ldrb	r2, [r5, #135]	; 0x87
    5c48:	e0023003 	and	r3, r2, r3
    5c4c:	e3130010 	tst	r3, #16
    5c50:	13a03010 	movne	r3, #16
    5c54:	1a000005 	bne	5c70 <wpa_supplicant_set_suites+0xf4>
    5c58:	e3130008 	tst	r3, #8
    5c5c:	13a03008 	movne	r3, #8
    5c60:	1a000002 	bne	5c70 <wpa_supplicant_set_suites+0xf4>
    5c64:	e3130001 	tst	r3, #1
    5c68:	0a000039 	beq	5d54 <wpa_supplicant_set_suites+0x1d8>
    5c6c:	e3a03001 	mov	r3, #1
    5c70:	e584301c 	str	r3, [r4, #28]
    5c74:	e59d300c 	ldr	r3, [sp, #12]
    5c78:	e5d52089 	ldrb	r2, [r5, #137]	; 0x89
    5c7c:	e0023003 	and	r3, r2, r3
    5c80:	e3130001 	tst	r3, #1
    5c84:	13a03001 	movne	r3, #1
    5c88:	1a000005 	bne	5ca4 <wpa_supplicant_set_suites+0x128>
    5c8c:	e3130002 	tst	r3, #2
    5c90:	13a03002 	movne	r3, #2
    5c94:	1a000002 	bne	5ca4 <wpa_supplicant_set_suites+0x128>
    5c98:	e3130010 	tst	r3, #16
    5c9c:	0a00002c 	beq	5d54 <wpa_supplicant_set_suites+0x1d8>
    5ca0:	e3a03010 	mov	r3, #16
    5ca4:	e5843024 	str	r3, [r4, #36]	; 0x24
    5ca8:	e3a01003 	mov	r1, #3
    5cac:	e5942024 	ldr	r2, [r4, #36]	; 0x24
    5cb0:	e5940030 	ldr	r0, [r4, #48]	; 0x30
    5cb4:	ebfffa90 	bl	46fc <wpa_sm_set_param>
    5cb8:	e3a01001 	mov	r1, #1
    5cbc:	e594201c 	ldr	r2, [r4, #28]
    5cc0:	e5940030 	ldr	r0, [r4, #48]	; 0x30
    5cc4:	ebfffa8c 	bl	46fc <wpa_sm_set_param>
    5cc8:	e3a01002 	mov	r1, #2
    5ccc:	e5942020 	ldr	r2, [r4, #32]
    5cd0:	e5940030 	ldr	r0, [r4, #48]	; 0x30
    5cd4:	ebfffa88 	bl	46fc <wpa_sm_set_param>
    5cd8:	e1a01006 	mov	r1, r6
    5cdc:	e5940030 	ldr	r0, [r4, #48]	; 0x30
    5ce0:	e1a02008 	mov	r2, r8
    5ce4:	ebfffab2 	bl	47b4 <wpa_sm_set_assoc_wpa_ie_default>
    5ce8:	e2506000 	subs	r6, r0, #0
    5cec:	1a000018 	bne	5d54 <wpa_supplicant_set_suites+0x1d8>
    5cf0:	e5d53089 	ldrb	r3, [r5, #137]	; 0x89
    5cf4:	e59f0064 	ldr	r0, [pc, #100]	; 5d60 <wpa_supplicant_set_suites+0x1e4>
    5cf8:	e0030000 	and	r0, r3, r0
    5cfc:	e3500000 	cmp	r0, #0
    5d00:	0a000014 	beq	5d58 <wpa_supplicant_set_suites+0x1dc>
    5d04:	e5d57047 	ldrb	r7, [r5, #71]	; 0x47
    5d08:	e3570000 	cmp	r7, #0
    5d0c:	0a00000a 	beq	5d3c <wpa_supplicant_set_suites+0x1c0>
    5d10:	e3a03a01 	mov	r3, #4096	; 0x1000
    5d14:	e2850047 	add	r0, r5, #71	; 0x47
    5d18:	e1a01005 	mov	r1, r5
    5d1c:	e5d52020 	ldrb	r2, [r5, #32]
    5d20:	ebfff35b 	bl	2a94 <init_pbkdf2_sha1_calc>
    5d24:	e59f3038 	ldr	r3, [pc, #56]	; 5d64 <wpa_supplicant_set_suites+0x1e8>
    5d28:	e580402c 	str	r4, [r0, #44]	; 0x2c
    5d2c:	e5840040 	str	r0, [r4, #64]	; 0x40
    5d30:	e584303c 	str	r3, [r4, #60]	; 0x3c
    5d34:	e1a00006 	mov	r0, r6
    5d38:	ea000006 	b	5d58 <wpa_supplicant_set_suites+0x1dc>
    5d3c:	e5940030 	ldr	r0, [r4, #48]	; 0x30
    5d40:	e2851027 	add	r1, r5, #39	; 0x27
    5d44:	e3a02020 	mov	r2, #32
    5d48:	ebfffa62 	bl	46d8 <wpa_sm_set_pmk>
    5d4c:	e1a00007 	mov	r0, r7
    5d50:	ea000000 	b	5d58 <wpa_supplicant_set_suites+0x1dc>
    5d54:	e3e00000 	mvn	r0, #0
    5d58:	e28dd020 	add	sp, sp, #32
    5d5c:	e8bd81f0 	pop	{r4, r5, r6, r7, r8, pc}
    5d60:	00000142 	andeq	r0, r0, r2, asr #2
    5d64:	00005978 	andeq	r5, r0, r8, ror r9

00005d68 <wpa_supplicant_associate>:
    5d68:	e92d4010 	push	{r4, lr}
    5d6c:	e3a01000 	mov	r1, #0
    5d70:	e1a04000 	mov	r4, r0
    5d74:	ebffff29 	bl	5a20 <wpa_clear_keys>
    5d78:	e1a00004 	mov	r0, r4
    5d7c:	e3a01004 	mov	r1, #4
    5d80:	e8bd4010 	pop	{r4, lr}
    5d84:	eaffff56 	b	5ae4 <wpa_supplicant_set_state>

00005d88 <wpa_supplicant_disassociate>:
    5d88:	e5d03010 	ldrb	r3, [r0, #16]
    5d8c:	e5d01011 	ldrb	r1, [r0, #17]
    5d90:	e1811003 	orr	r1, r1, r3
    5d94:	e5d03012 	ldrb	r3, [r0, #18]
    5d98:	e1811003 	orr	r1, r1, r3
    5d9c:	e5d03013 	ldrb	r3, [r0, #19]
    5da0:	e1811003 	orr	r1, r1, r3
    5da4:	e5d03014 	ldrb	r3, [r0, #20]
    5da8:	e1811003 	orr	r1, r1, r3
    5dac:	e5d03015 	ldrb	r3, [r0, #21]
    5db0:	e1911003 	orrs	r1, r1, r3
    5db4:	12801010 	addne	r1, r0, #16
    5db8:	eaffff37 	b	5a9c <wpa_supplicant_clear_connection>

00005dbc <wpa_supplicant_timeout>:
    5dbc:	e3a01003 	mov	r1, #3
    5dc0:	eafffff0 	b	5d88 <wpa_supplicant_disassociate>

00005dc4 <wpa_supplicant_deauthenticate>:
    5dc4:	e5d03010 	ldrb	r3, [r0, #16]
    5dc8:	e5d01011 	ldrb	r1, [r0, #17]
    5dcc:	e1811003 	orr	r1, r1, r3
    5dd0:	e5d03012 	ldrb	r3, [r0, #18]
    5dd4:	e1811003 	orr	r1, r1, r3
    5dd8:	e5d03013 	ldrb	r3, [r0, #19]
    5ddc:	e1811003 	orr	r1, r1, r3
    5de0:	e5d03014 	ldrb	r3, [r0, #20]
    5de4:	e1811003 	orr	r1, r1, r3
    5de8:	e5d03015 	ldrb	r3, [r0, #21]
    5dec:	e1911003 	orrs	r1, r1, r3
    5df0:	12801010 	addne	r1, r0, #16
    5df4:	eaffff28 	b	5a9c <wpa_supplicant_clear_connection>

00005df8 <wpa_supplicant_deinit_iface>:
    5df8:	e92d4038 	push	{r3, r4, r5, lr}
    5dfc:	e3a01003 	mov	r1, #3
    5e00:	e1a04000 	mov	r4, r0
    5e04:	ebffffee 	bl	5dc4 <wpa_supplicant_deauthenticate>
    5e08:	e1a00004 	mov	r0, r4
    5e0c:	e3a01000 	mov	r1, #0
    5e10:	ebfff39e 	bl	2c90 <wpa_drv_set_countermeasures>
    5e14:	e3a01000 	mov	r1, #0
    5e18:	e1a00004 	mov	r0, r4
    5e1c:	ebfffeff 	bl	5a20 <wpa_clear_keys>
    5e20:	e3a05000 	mov	r5, #0
    5e24:	e5940030 	ldr	r0, [r4, #48]	; 0x30
    5e28:	ebfffa05 	bl	4644 <wpa_sm_deinit>
    5e2c:	e1a00004 	mov	r0, r4
    5e30:	e5845030 	str	r5, [r4, #48]	; 0x30
    5e34:	ebfffef4 	bl	5a0c <wpa_supplicant_cancel_auth_timeout>
    5e38:	e59f000c 	ldr	r0, [pc, #12]	; 5e4c <wpa_supplicant_deinit_iface+0x54>
    5e3c:	e1a01004 	mov	r1, r4
    5e40:	e1a02005 	mov	r2, r5
    5e44:	e8bd4038 	pop	{r3, r4, r5, lr}
    5e48:	eafffdb7 	b	552c <eloop_cancel_timeout>
    5e4c:	00005614 	andeq	r5, r0, r4, lsl r6

00005e50 <wpa_supplicant_get_ssid>:
    5e50:	e92d4010 	push	{r4, lr}
    5e54:	e3a01000 	mov	r1, #0
    5e58:	e1a04000 	mov	r4, r0
    5e5c:	ebfff399 	bl	2cc8 <wpa_drv_get_ssid>
    5e60:	e3500000 	cmp	r0, #0
    5e64:	b3a00000 	movlt	r0, #0
    5e68:	b8bd8010 	poplt	{r4, pc}
    5e6c:	e1a00004 	mov	r0, r4
    5e70:	e3a01000 	mov	r1, #0
    5e74:	ebfff387 	bl	2c98 <wpa_drv_get_bssid>
    5e78:	e3500000 	cmp	r0, #0
    5e7c:	a5940018 	ldrge	r0, [r4, #24]
    5e80:	b3a00000 	movlt	r0, #0
    5e84:	e8bd8010 	pop	{r4, pc}

00005e88 <wpa_supplicant_rx_eapol>:
    5e88:	e92d41f0 	push	{r4, r5, r6, r7, r8, lr}
    5e8c:	e1a07003 	mov	r7, r3
    5e90:	e5d03034 	ldrb	r3, [r0, #52]	; 0x34
    5e94:	e3530004 	cmp	r3, #4
    5e98:	e1a04000 	mov	r4, r0
    5e9c:	e1a06001 	mov	r6, r1
    5ea0:	e1a05002 	mov	r5, r2
    5ea4:	98bd81f0 	popls	{r4, r5, r6, r7, r8, pc}
    5ea8:	e5900024 	ldr	r0, [r0, #36]	; 0x24
    5eac:	e3500004 	cmp	r0, #4
    5eb0:	08bd81f0 	popeq	{r4, r5, r6, r7, r8, pc}
    5eb4:	e5943038 	ldr	r3, [r4, #56]	; 0x38
    5eb8:	e3530000 	cmp	r3, #0
    5ebc:	1a000017 	bne	5f20 <wpa_supplicant_rx_eapol+0x98>
    5ec0:	ebffea41 	bl	7cc <wpa_key_mgmt_wpa_psk>
    5ec4:	e3500000 	cmp	r0, #0
    5ec8:	0a000002 	beq	5ed8 <wpa_supplicant_rx_eapol+0x50>
    5ecc:	e5d43034 	ldrb	r3, [r4, #52]	; 0x34
    5ed0:	e3530008 	cmp	r3, #8
    5ed4:	0a000011 	beq	5f20 <wpa_supplicant_rx_eapol+0x98>
    5ed8:	e5943018 	ldr	r3, [r4, #24]
    5edc:	e3530000 	cmp	r3, #0
    5ee0:	1a00000e 	bne	5f20 <wpa_supplicant_rx_eapol+0x98>
    5ee4:	e5940024 	ldr	r0, [r4, #36]	; 0x24
    5ee8:	ebffea33 	bl	7bc <wpa_key_mgmt_wpa_ieee8021x>
    5eec:	e3500000 	cmp	r0, #0
    5ef0:	1a000006 	bne	5f10 <wpa_supplicant_rx_eapol+0x88>
    5ef4:	e5941024 	ldr	r1, [r4, #36]	; 0x24
    5ef8:	e3510008 	cmp	r1, #8
    5efc:	0a000003 	beq	5f10 <wpa_supplicant_rx_eapol+0x88>
    5f00:	e3510c02 	cmp	r1, #512	; 0x200
    5f04:	13a0100a 	movne	r1, #10
    5f08:	03a01046 	moveq	r1, #70	; 0x46
